((dp0
VBogies
p1
(lp2
Vthe Bogies Quirrell
p3
asVDundee
p4
(lp5
g4
asVSorcerer
p6
(lp7
Vthe Sorcerer
p8
aVthe Sorcerer
p9
aVthe Sorcerer
p10
aVSorcerer
p11
aVa Sorcerer
p12
aVabout the Sorcerer
p13
aVthe Sorcerer
p14
aVthe Sorcerer
p15
aVthe Sorcerer
p16
aVa Sorcerer
p17
aVthe Sorcerer
p18
aVtwelve Sorcerer
p19
aVtwelve Sorcerer
p20
aVThe Sorcerer
p21
aVthe Sorcerer
p22
aVthe Sorcerer
p23
aVGrand Sorc
p24
asVDad
p25
(lp26
g25
aVDad
p27
aVMom and Dad
p28
aVDad
p29
aVDaddy
p30
aVDaddy
p31
asVNorris
p32
(lp33
VMrs. Norris
p34
aVMrs. Norris
p35
aVMrs. Norris
p36
aVFilch or Mrs. Norris
p37
aVMrs. Norris
p38
aVMrs. Norris
p39
aVFilch or Mrs. Norris
p40
aVFilch or Mrs. Norris
p41
aVMrs. Norris
p42
aVas Mrs. Norris
p43
aVMrs. Norris
p44
aVMrs. Norris
p45
aVMrs. Norris
p46
aVMrs. Norris
p47
asVLucky
p48
(lp49
g48
aVlucky Harry
p50
asVVoldemort
p51
(lp52
g51
aVVoldemort
p53
aVVoldemort
p54
aVVoldemort
p55
aVlast night Voldemort
p56
aVVoldemort
p57
aVVoldemort
p58
aVmy parents or Voldemort
p59
aVVoldemort
p60
aVVoldemort...and Voldemort
p61
aVVoldemort
p62
aVVoldemort
p63
aVVoldemort
p64
aVVoldemort
p65
aVVoldemort
p66
aVVoldemort
p67
aVVoldemort
p68
aVVoldemort
p69
aVVoldemort
p70
aVVoldemort
p71
aVLord Voldemort
p72
aVLord Voldemort
p73
aVVoldemort
p74
aVVoldemort
p75
aVVoldemort
p76
aVVoldemort
p77
aVhim Voldemort
p78
aVVoldemort
p79
aVone thing Voldemort
p80
aVVoldemort
p81
aVVoldemort
p82
aVVoldemort
p83
aVVoldemort certainly
p84
aVVoldemort again
p85
aVVol
p86
aVVol
p87
aVVol
p88
aVthe house Vol
p89
aVVol
p90
aVVol
p91
aVgood Lord
p92
aVGood Lord
p93
aVLord Voldemort
p94
aVLord Voldemort
p95
asVMrs.
p96
(lp97
VMr. and Mrs. Weasley
p98
aVMrs. Weasley
p99
aVMr. and Mrs. Dursley
p100
aVMrs. Dursley
p101
aVMrs. Dursley
p102
aVMrs. Dursley
p103
aVMrs. Dursley
p104
aVMrs. Dursley
p105
aVMrs. Dursley
p106
aVMrs. Dursley
p107
aVbeady-eyed Mrs. Dursley
p108
aVMrs. Dursley stiffly
p109
aVMr. and Mrs. Dursley
p110
aVMr. and Mrs. Dursley
p111
aVMr. and Mrs. Weasley
p112
asVI'd
p113
(lp114
Vyou I'd
p115
aVI'd
p116
aVI'd
p117
aVI'd
p118
aVI'd
p119
aVI'd
p120
aVI'd
p121
aVI'd
p122
aVI'd
p123
aVa toad I'd
p124
aVI'd
p125
aVI'd
p126
aVI'd
p127
aVI'd
p128
aVI'd
p129
aVI'd
p130
aVI'd
p131
aVI'd
p132
aVI'd
p133
aVI'd
p134
aVyou I'd
p135
aVI'd
p136
aVI'd
p137
aVI'd
p138
aVI'd
p139
aVI'd
p140
aVsome other things I'd
p141
aVI'd not
p142
aVI'd always
p143
asVteam
p144
(lp145
Vthe best team Gryffindor
p146
asVPetunia
p147
(lp148
g147
aVhe and Petunia
p149
aVhe and Petunia
p150
aVhe and Petunia
p151
aVhe and Petunia
p152
aVhis Aunt Petunia
p153
aVAunt Petunia
p154
aVAunt Petunia
p155
aVAunt Petunia
p156
aVAunt Petunia
p157
aVAunt Petunia
p158
aVAunt Petunia
p159
aVAunt Petunia
p160
aVPetunia
p161
aVAunt Petunia
p162
aVPetunia
p163
aVAunt Petunia
p164
aVAunt Petunia
p165
aVAunt Petunia
p166
aVAunt Petunia
p167
aVAunt Petunia
p168
aVAunt Petunia
p169
aVAunt Petunia
p170
aVAunt Petunia
p171
aVAunt Petunia
p172
aVAunt Petunia
p173
aVAunt Petunia
p174
aVUncle Vernon and Aunt Petunia
p175
aVUncle Vernon and Aunt Petunia
p176
aVAunt Petunia often
p177
aVAunt Petunia frantically
p178
aVAunt Petunia and Dudley
p179
aVAunt Petunia suddenly
p180
aVAunt Petunia and Dudley
p181
aVAunt Petunia and Dudley
p182
asVGeorge
p183
(lp184
g183
aVGeorge
p185
aVGeorge
p186
aVGeorge
p187
aVGeorge
p188
aVFred and George
p189
aVGeorge
p190
aVGeorge
p191
aVFred and George
p192
aVGeorge
p193
aVFred and George
p194
aVGeorge
p195
aVFred and George
p196
aVFred and George
p197
aVGeorge
p198
aVGeorge
p199
aVGeorge
p200
aVPercy chase Fred and George
p201
aVGeorge
p202
aVFred and George
p203
aVFred and George
p204
aVFred and George Weasley
p205
aVFred and George Weasley
p206
aVFred and George Weasley now
p207
aVFred or George Weasley
p208
aVGeorge Weasley
p209
aVGeorge Weasley really
p210
aVGeorge Weasley
p211
aVyour friends Misters Fred and George Weasley
p212
asVLevi-o-sa
p213
(lp214
VWing-gar-dium Levi-o-sa
p215
asVWeasley
p216
(lp217
VRon Weasley
p218
aVAnother Weasley
p219
aVMr. Weasley
p220
aVWeasley
p221
aVFred Weasley
p222
aVit and Fred Weasley
p223
aVMr. and Mrs. Weasley
p224
aVWeasley
p225
aVWeasley
p226
aVPercy Weasley
p227
aVFred Weasley
p228
aVWeasley
p229
aVWeasley
p230
aVWeasley
p231
aVWeasley
p232
aVWeasley
p233
aVMr. Ronald Weasley
p234
ag99
aVMrs. Weasley
p235
aVPercy Weasley and Hermione
p236
aVGeorge Weasley really
p237
aVFred Weasley sadly
p238
aVme all the Weasleys
p239
aVtwo Weasleys
p240
aVHarry and the Weasleys
p241
aVThe Weasleys
p242
aVThe Weasleys
p243
aVthe Weasleys
p244
aVthe Weasleys
p245
aVThe Weasleys
p246
aVthe Weasleys
p247
aVthe Weasleys
p248
aVthe Weasleys
p249
aVall the Weasleys
p250
aVthe Weasleys
p251
ag244
aVHarry and the Weasleys
p252
asVDiggle
p253
(lp254
VDedalus Diggle
p255
aVDiggle
p256
aVDedalus Diggle
p257
aVDedalus Diggle
p258
aVDedalus Diggle
p259
asVGoyle
p260
(lp261
g260
aVCrabbe and Goyle
p262
aVGoyle
p263
aVGoyle
p264
aVGoyle
p265
aVGoyle
p266
aVGoyle
p267
aVhis friends Crabbe and Goyle
p268
aVGoyle
p269
aVGoyle
p270
aVCrabbe and Goyle
p271
aVGoyle
p272
aVGoyle
p273
ag273
aVCrabbe and Goyle
p274
aVCrabbe and Goyle
p275
aVCrabbe and Goyle
p276
aVCrabbe and Goyle
p277
aVCrabbe and Goyle
p278
aVCrabbe and Goyle
p279
aVGoyle
p280
aVCrabbe and Goyle
p281
aVGoyle
p282
aVGoyle
p283
aVCrabbe and Goyle
p284
aVGoyle
p285
aVCrabbe
p286
aVDraco Malfoy and his friends Crabbe
p287
aVCrabbe
p288
aVNo Crabbe
p289
aVCrabbe
p290
ag290
aVCrabbe
p291
aVMalfoy and Crabbe
p292
aVMalfoy and Crabbe
p293
aVCrabbe
p294
aVCrabbe
p295
aVCrabbe
p296
aVCrabbe and Goyle
p297
aVCrabbe and Malfoy
p298
aVhis friends Crabbe and Goyle
p299
aVCrabbe and Goyle
p300
aVCrabbe and Goyle
p301
aVCrabbe and Goyle
p302
aVCrabbe and Goyle
p303
aVCrabbe and Goyle
p304
aVCrabbe and Goyle
p305
aVCrabbe and Goyle
p306
aVCrabbe and Goyle
p307
aVCrabbe and Goyle
p308
asVRed
p309
(lp310
g309
asVHead
p311
(lp312
g311
aVHead
p313
aVDeputy Headmistress
p314
asVNeville
p315
(lp316
g315
aVNeville
p317
aVNeville
p318
aVNeville
p319
aVNeville
p320
aVNeville
p321
aVNeville
p322
aVNeville
p323
aVNeville
p324
aVNeville
p325
aVNeville
p326
aVNeville
p327
aVNeville
p328
aVNeville
p329
aVNeville
p330
aVNeville
p331
aVNeville
p332
aVNeville
p333
aVNeville
p334
aVNeville
p335
ag332
ag333
ag334
ag335
aVNeville
p336
aVNeville
p337
aVNeville
p338
aVNeville
p339
aVNeville
p340
aVNeville
p341
aVNeville
p342
aVNeville
p343
aVNeville
p344
aVNeville
p345
aVNeville
p346
aVNeville
p347
aVNeville
p348
aVNeville
p349
aVNeville
p350
aVNeville
p351
aVNeville
p352
aVNeville
p353
aVNeville
p354
aVNeville
p355
aVAll Neville
p356
aVNeville
p357
aVNeville
p358
aVNeville
p359
aVNeville
p360
aVNeville
p361
aVNeville
p362
aVNeville
p363
aVNeville
p364
aVNeville
p365
aVNeville
p366
aVNeville
p367
aVNeville
p368
aVNeville
p369
aVNeville
p370
aVNeville
p371
aVNeville
p372
aVNeville
p373
aVNeville
p374
aVNeville
p375
aVNeville
p376
aVNeville
p377
aVNeville
p378
aVNeville
p379
aVNeville
p380
aVNeville
p381
aVNeville
p382
aVNeville
p383
aVNeville
p384
aVNeville
p385
aVHermione and Neville
p386
aVNeville
p387
aVNeville
p388
aVNeville
p389
aVNeville
p390
aVNeville
p391
aVNeville
p392
aVNeville
p393
aVNeville
p394
aVbehind Neville
p395
aVNeville
p396
ag394
aVbehind Neville
p397
ag396
aVNeville
p398
aVNeville
p399
aVNeville
p400
aVNeville
p401
aVNeville
p402
aVNeville
p403
aVNeville
p404
aVNeville
p405
aVNeville
p406
aVNeville
p407
aVNeville
p408
aVNeville
p409
aVNeville
p410
aVNeville
p411
aVNeville
p412
aVNeville
p413
aVNeville
p414
aVNeville
p415
aVNeville
p416
aVNeville
p417
aVNeville
p418
aVNeville
p419
aVNeville
p420
aVNeville
p421
aVNeville
p422
aVNeville blissfully
p423
aVNeville suddenly
p424
aVMr. Neville Longbottom
p425
aVNeville...it
p426
asVCharlie
p427
(lp428
VBill and Charlie
p429
aVboy and Charlie
p430
aVCharlie
p431
aVCharlie
p432
aVyer brother Charlie
p433
aVHagrid all about Charlie
p434
aVCharlie
p435
ag435
aVCharlie
p436
aVCharlie
p437
ag437
aVthe burns Charlie
p438
aVCharlie
p439
aVCharlie
p440
aVCharlie
p441
aVCharlie
p442
aVCharlie
p443
aVCharlie
p444
aVCharlie
p445
aVCharlie
p446
aVCharlie
p447
aVCharlie
p448
ag448
aVCharlie Weasley
p449
aVCharlie Weasley
p450
asVProfessor
p451
(lp452
VMy dear Professor
p453
aVProfessor
p454
ag454
aVProfessor
p455
aVProfessor
p456
aVProfessor
p457
aVProfessor
p458
aVProfessor
p459
aVProfessor
p460
aVProfessor
p461
aVProfessor
p462
aVProfessor
p463
aVProfessor
p464
aVProfessor
p465
aVProfessor
p466
aVProfessor
p467
aVProfessor
p468
aVProfessor McGonagall irritably
p469
aVProfessor McGonagall faintly
p470
aVProfessor McGonagall grudgingly
p471
aVDumbledore and Professor McGonagall
p472
aVProfessor Vindictus Viridian
p473
aVProfessor McGonagall now
p474
aVProfessor Quirrell
p475
aVProfessor Quirrell
p476
aVProfessor Quirrell
p477
aVProfessor Quirrell
p478
aVProfessor Quirrell
p479
aVProfessor Quirrell
p480
aVProfessor Quirrell
p481
aVProfessor McGonagall
p482
aVProfessor McGonagall
p483
aVProfessor McGonagall
p484
aVProfessor McGonagall
p485
aVProfessor McGonagall
p486
aVProfessor McGonagall
p487
aVProfessor McGonagall crisply
p488
aVProfessor McGonagall
p489
aVProfessor McGonagall
p490
aVProfessor McGonagall
p491
aVProfessor McGonagall
p492
aVProfessor McGonagall
p493
aVProfessor McGonagall
p494
aVProfessor McGonagall
p495
aVProfessor Flitwick
p496
aVProfessor Flitwick
p497
aVProfessor Flitwick
p498
aVProfessor Quirrell
p499
aVProfessor McGonagall
p500
aVProfessor McGonagall
p501
aVProfessor McGonagall
p502
aVProfessor McGonagall
p503
aVProfessor McGonagall
p504
aVProfessor McGonagall
p505
aVProfessor McGonagall
p506
aVProfessor McGonagall
p507
aVProfessor McGonagall
p508
aVProfessor McGonagall
p509
aVProfessor McGonagall
p510
aVProfessor Dumbledore
p511
aVProfessor McGonagall
p512
aVProfessor McGonagall
p513
aVProfessor McGonagall and Professor Flitwick
p514
aVProfessor Flitwick
p515
aVa joke Professor Flitwick
p516
aVProfessor McGonagall
p517
aVProfessor Dumbledore
p518
aVProfessor McGonagall
p519
aVProfessor Flitwick
p520
aVProfessor McGonagall
p521
aVProfessor Quirrell
p522
aVProfessor McGonagall
p523
aVProfessor McGonagall
p524
aVProfessor McGonagall
p525
aVProfessor McGonagall
p526
aVProfessor McGonagall
p527
aVProfessor McGonagall
p528
aVProfessor McGonagall
p529
aVProfessor McGonagall
p530
aVProfessor McGonagall
p531
aVProfessor McGonagall
p532
aVProfessor Flitwick
p533
aVProfessor McGonagall
p534
aVProfessor McGonagall
p535
aVProfessor Dumbledore
p536
aVProfessor Dumbledore
p537
aVProfessor McGonagall
p538
aVProfessor McGonagall
p539
aVProfessor Dumbledore
p540
aVProfessor Dumbledore
p541
aVProfessor Dumbledore
p542
aVProfessor Dumbledore
p543
aVsure Professor McGonagall
p544
aVProfessor Flitwick
p545
aVProfessor Flitwick
p546
aVProfessor McGonagall
p547
aVyou and Professor Quirrell
p548
aVProfessor Quirrell
p549
aVProfessor Snape
p550
aVProfessor Snape
p551
aVProfessor Dumbledore
p552
aVProfessor Dumbledore
p553
aVthough in her opinion Professor Dumbledore
p554
aVProfessor McGonagall
p555
asVboy
p556
(lp557
Vtheir compartment and the round-faced boy Harry
p558
asVHagrid
p559
(lp560
g559
aVHagrid
p561
aVHagrid
p562
aVHagrid
p563
aVHagrid
p564
aVHagrid
p565
aVHagrid
p566
aVHagrid
p567
aVHagrid
p568
aVHagrid
p569
aVHagrid
p570
aVHagrid
p571
aVHagrid
p572
aVme Hagrid
p573
aVHagrid
p574
aVHagrid
p575
aVHagrid
p576
aVHagrid
p577
aVHagrid
p578
aVHagrid
p579
aVHagrid
p580
aVHagrid
p581
aVHagrid
p582
aVHagrid
p583
aVHagrid
p584
aVHagrid
p585
aVHagrid
p586
aVHagrid
p587
aVHagrid
p588
aVHagrid
p589
aVHagrid
p590
aVHagrid
p591
aVHagrid
p592
aVHagrid
p593
aVHagrid
p594
aVHagrid
p595
aVHagrid
p596
aVHagrid
p597
aVHagrid
p598
aVHagrid
p599
aVHagrid
p600
aVHagrid
p601
aVHagrid
p602
aVHagrid
p603
aVHagrid
p604
aVHagrid
p605
aVHagrid
p606
aVHagrid
p607
aVHagrid
p608
aVHagrid
p609
aVHagrid
p610
aVHagrid
p611
aVHagrid
p612
aVHagrid
p613
aVHagrid
p614
aVHagrid
p615
aVHagrid
p616
aVHagrid
p617
aVHagrid
p618
aVHagrid
p619
aVHagrid
p620
aVHagrid
p621
aVHagrid
p622
aVHagrid
p623
aVHagrid
p624
aVHagrid
p625
aVHagrid
p626
aVHagrid
p627
aVHagrid
p628
aVHagrid
p629
aVHagrid
p630
aVHagrid
p631
aVHagrid
p632
aVHagrid
p633
aVHagrid
p634
aVHagrid
p635
aVHagrid
p636
aVHagrid
p637
aVHagrid
p638
aVHagrid
p639
aVHagrid
p640
ag638
ag639
ag640
aVHagrid
p641
aVHagrid
p642
aVHagrid
p643
aVHagrid
p644
aVHagrid
p645
aVHagrid
p646
aVHagrid
p647
aVHagrid
p648
aVHagrid
p649
aVHagrid
p650
aVHagrid
p651
aVHagrid
p652
aVHagrid
p653
aVHagrid
p654
aVHagrid
p655
aVHagrid
p656
aVHagrid
p657
aVHagrid
p658
aVHagrid
p659
aVHagrid
p660
ag660
aVHagrid
p661
aVHagrid
p662
aVHagrid
p663
aVHagrid
p664
aVHagrid
p665
aVHagrid
p666
aVHagrid
p667
aVHagrid
p668
aVHagrid
p669
aVHagrid
p670
aVHagrid
p671
aVHagrid
p672
aVHagrid
p673
aVHagrid
p674
aVHagrid
p675
aVHagrid
p676
aVHagrid
p677
aVHagrid
p678
aVHagrid
p679
aVHagrid
p680
ag680
aVHagrid
p681
aVHagrid
p682
aVHagrid
p683
aVHagrid
p684
aVHagrid
p685
aVHagrid
p686
aVHagrid
p687
aVHagrid
p688
aVHagrid
p689
aVHagrid
p690
aVHagrid
p691
aVHagrid
p692
aVHagrid
p693
ag693
aVHagrid
p694
aVHagrid
p695
aVHagrid
p696
aVHagrid
p697
aVHagrid
p698
aVHagrid
p699
aVHagrid
p700
aVHagrid
p701
aVHagrid
p702
aVHagrid
p703
aVHagrid
p704
aVHagrid
p705
aVHagrid
p706
ag706
aVHagrid
p707
aVHagrid
p708
aVHagrid
p709
aVHagrid
p710
aVHagrid
p711
aVHagrid
p712
aVHagrid
p713
aVHagrid
p714
aVHagrid
p715
aVHagrid
p716
aVHagrid
p717
aVHagrid
p718
aVHagrid
p719
aVHagrid
p720
aVHagrid
p721
aVHagrid
p722
aVHagrid
p723
aVHagrid
p724
aVHagrid
p725
aVHagrid
p726
aVHagrid
p727
aVHagrid
p728
aVHagrid
p729
aVHagrid
p730
aVHagrid
p731
aVHagrid
p732
ag732
aVHagrid
p733
aVHagrid
p734
aVHagrid
p735
ag733
ag734
ag735
aVHagrid
p736
aVHagrid
p737
aVHagrid
p738
aVHagrid
p739
aVHagrid
p740
aVHagrid
p741
aVHagrid
p742
aVHagrid
p743
aVHagrid
p744
aVHagrid
p745
aVHagrid
p746
aVHagrid
p747
aVHagrid
p748
aVHagrid
p749
aVHagrid
p750
aVHagrid
p751
aVHagrid
p752
aVHagrid
p753
ag753
aVHagrid
p754
aVHagrid
p755
aVHagrid
p756
aVHagrid
p757
aVHagrid
p758
aVHagrid
p759
aVHagrid
p760
aVHagrid
p761
aVHagrid
p762
aVHagrid
p763
aVHagrid
p764
ag764
aVHagrid
p765
aVHagrid
p766
ag765
ag766
aVHagrid
p767
aVHagrid
p768
aVHagrid
p769
aVHagrid
p770
aVHagrid
p771
aVHagrid
p772
aVHagrid
p773
aVHagrid
p774
aVHagrid
p775
aVHagrid
p776
aVHagrid
p777
aVHagrid
p778
aVHagrid
p779
aVHagrid
p780
aVHagrid
p781
aVHagrid
p782
aVHagrid
p783
aVHagrid
p784
aVHagrid
p785
aVHagrid
p786
aVHagrid
p787
aVHagrid
p788
aVHagrid
p789
aVHagrid
p790
aVHagrid
p791
aVHagrid
p792
aVHagrid
p793
aVHagrid
p794
aVHagrid
p795
aVHagrid
p796
aVHagrid
p797
aVHagrid
p798
aVHagrid
p799
aVHagrid
p800
aVHagrid
p801
aVHagrid
p802
aVHagrid
p803
aVHagrid
p804
aVHagrid
p805
aVHagrid
p806
aVHagrid
p807
aVHagrid
p808
aVHagrid
p809
aVHagrid
p810
aVHagrid
p811
aVHagrid
p812
aVHagrid
p813
aVHagrid
p814
aVHagrid
p815
aVHagrid
p816
aVHagrid
p817
aVHagrid
p818
aVHagrid
p819
aVHagrid
p820
aVHagrid
p821
aVHagrid
p822
aVHagrid
p823
aVHagrid
p824
aVHagrid
p825
aVHagrid
p826
aVHagrid
p827
aVHagrid
p828
aVHagrid
p829
aVHagrid
p830
aVHagrid
p831
aVHagrid
p832
aVHagrid
p833
aVHagrid
p834
aVHagrid
p835
aVHagrid
p836
aVHagrid
p837
aVHagrid
p838
aVHagrid
p839
aVHagrid
p840
aVHagrid
p841
aVHagrid
p842
aVHagrid
p843
aVHagrid
p844
aVHagrid
p845
ag844
ag845
aVHagrid
p846
aVHagrid
p847
aVHagrid
p848
aVHagrid
p849
aVHagrid
p850
aVHagrid
p851
aVHagrid
p852
aVHagrid
p853
aVHagrid
p854
aVHagrid
p855
aVHagrid
p856
aVHagrid
p857
aVHagrid
p858
aVHagrid
p859
aVHagrid
p860
aVHagrid
p861
aVHagrid
p862
aVHagrid
p863
aVHagrid
p864
aVHagrid
p865
aVHagrid
p866
aVHagrid
p867
aVHagrid
p868
aVHagrid
p869
aVHagrid
p870
aVHagrid
p871
aVHagrid
p872
aVHagrid
p873
aVHagrid
p874
aVHagrid
p875
aVHagrid
p876
aVHagrid simply
p877
aVHagrid suddenly
p878
aVHagrid sleepily
p879
aVHagrid quietly
p880
aVHagrid importantly
p881
aVHagrid darkly
p882
aVHagrid gruffly
p883
aVHagrid down
p884
aVHagrid definitely
p885
aVHagrid gruffly
p886
aVHagrid hotly
p887
aVHagrid again
p888
aVHagrid fiercely
p889
aVHagrid grimly
p890
aVHagrid irritably
p891
aVHagrid suddenly
p892
asVDean
p893
(lp894
g893
aVDean
p895
ag895
aVDean
p896
aVDean
p897
aVDean
p898
aVDean
p899
aVDean
p900
aVDean Thomas
p901
aVDean Thomas
p902
aVDean and Seamus
p903
aVDean Thomas
p904
aVDean furiously
p905
aVThomas
p906
aVDean Thomas
p907
aVDean Thomas
p908
aVDean Thomas
p909
asVPercy
p910
(lp911
g910
aVPercy
p912
aVPercy
p913
aVPercy
p914
aVPercy
p915
aVPercy
p916
aVPercy
p917
aVPercy
p918
aVPercy
p919
aVPercy
p920
aVPercy
p921
aVPercy
p922
aVPercy
p923
aVPercy
p924
aVPercy
p925
aVPercy
p926
aVPercy
p927
aVPercy
p928
aVPercy
p929
aVPercy
p930
aVPercy
p931
aVPercy
p932
aVPercy
p933
aVPercy
p934
aVPercy
p935
aVPercy
p936
aVPercy
p937
aVPercy the Prefect
p938
aVPercy uncertainly
p939
aVPercy Weasley and Hermione
p940
aVPercy thickly
p941
aVPercy chase Fred and George
p942
aVPercy'd
p943
asVGriphook
p944
(lp945
g944
aVGriphook
p946
aVGriphook
p947
aVGriphook
p948
aVGriphook
p949
aVGriphook
p950
ag948
ag949
ag950
aVGriphook
p951
aVGriphook
p952
aVGriphook
p953
aVGriphook
p954
aVGriphook
p955
aVGriphook importantly
p956
asVPomfrey
p957
(lp958
VMadam Pomfrey
p959
aVMadam Pomfrey
p960
aVMadam Pomfrey
p961
aVMadam Pomfrey
p962
aVMadam Pomfrey
p963
aVMadam Pomfrey
p964
aVMadam Pomfrey
p965
aVMadam Pomfrey
p966
aVMadam Pomfrey
p967
aVMadam Pomfrey
p968
aVMadam Pomfrey
p969
aVMadam Pomfrey
p970
aVby Madam Pomfrey
p971
asVDevil
p972
(lp973
g972
aVDevil
p974
aVDevil
p975
aVthe Devil
p976
aVif Devil
p977
aVif Devil
p978
asVsuddenly
p979
(lp980
VDudley suddenly
p981
aVUncle Vernon suddenly
p982
aVAunt Petunia suddenly
p983
aVHagrid suddenly
p984
aVHarry suddenly
p985
aVRon suddenly
p986
aVSnape suddenly
p987
aVNeville suddenly
p988
aVHarry suddenly
p989
aVRon suddenly
p990
aVHermione suddenly
p991
aVHarry suddenly
p992
aVFirenze suddenly
p993
aVFirenze suddenly
p994
aVHarry suddenly
p995
aVHagrid suddenly
p996
asVangrily
p997
(lp998
VHarry angrily
p999
asVNick
p1000
(lp1001
VHeadless Nick
p1002
aVHeadless Nick
p1003
aVHeadless Nick
p1004
aVHeadless Nick
p1005
aVHeadless Nick delicately
p1006
aVHeadless Nick delicately
p1007
asVSpinnet
p1008
(lp1009
VAlicia Spinnet
p1010
aVSpinnet
p1011
asVStone
p1012
(lp1013
g1012
aVStone
p1014
aVStone
p1015
aVStone
p1016
aVthe Stone
p1017
aVStone
p1018
aVStone
p1019
aVStone
p1020
aVStone
p1021
aVthe Stone
p1022
aVthe Stone
p1023
aVStone
p1024
aVthe Stone
p1025
aVThat Stone
p1026
aVthe Stone
p1027
aVthe Stone
p1028
aVthe Stone
p1029
aVStone
p1030
aVthe Stone
p1031
aVthe Stone
p1032
aVthe Stone
p1033
aVStone
p1034
aVthe Stone
p1035
aVabout the Stone
p1036
aVthe Stone
p1037
aVthe Stone
p1038
aVthe Stone
p1039
aVthe Stone
p1040
aVthe Stone
p1041
aVthe Stone
p1042
aVthe Stone
p1043
aVthe Stone
p1044
aVthe Stone
p1045
aVthe Stone
p1046
aVthe Stone
p1047
aVthe Stone
p1048
aVStone
p1049
aVStone
p1050
aVme the Stone
p1051
aVThe Stone
p1052
aVthe Stone
p1053
aVthe Stone
p1054
aVthe Stone
p1055
aVthe Stone
p1056
aVthe Stone
p1057
aVthe Stone
p1058
aVfor the Stone
p1059
aVthe Stone
p1060
aVthe Stone
p1061
aVthe Stone
p1062
aVthe Stone
p1063
aVthe Stone
p1064
aVthe Stone
p1065
aVthe Stone
p1066
aVthe Stone apart
p1067
aVthe Stone back
p1068
aVStones
p1069
aVStonewall
p1070
aVStonewall High
p1071
ag1069
aVStonewall High
p1072
aVthe Stone...I
p1073
asVFred
p1074
(lp1075
g1074
aVFred
p1076
aVFred
p1077
aVFred
p1078
aVFred
p1079
aVFred
p1080
aVFred
p1081
aVFred
p1082
aVFred
p1083
aVFred
p1084
aVFred
p1085
aVFred
p1086
aVFred
p1087
aVwhich Fred
p1088
aVFred
p1089
aVFred and George Weasley
p1090
aVFred and George
p1091
aVFred and George
p1092
aVFred and George Weasley
p1093
aVFred and George Weasley now
p1094
aVFred and George
p1095
aVFred Weasley
p1096
aVFred and George
p1097
aVFred or George Weasley
p1098
aVit and Fred Weasley
p1099
aVFred and George
p1100
aVPercy chase Fred and George
p1101
aVFred Weasley
p1102
aVFred and George
p1103
aVFred and George
p1104
aVyour friends Misters Fred and George Weasley
p1105
aVFred Weasley sadly
p1106
asVIt'd
p1107
(lp1108
g1107
asVThey'd
p1109
(lp1110
g1109
aVThey'd
p1111
asVVernon
p1112
(lp1113
VVernon
p1114
aVVernon
p1115
aVDudley and Uncle Vernon
p1116
aVVernon
p1117
aVVernon
p1118
aVVernon
p1119
aVVernon
p1120
aVVernon
p1121
aVUncle Vernon
p1122
aVUncle Vernon
p1123
aVUncle Vernon
p1124
aVUncle Vernon
p1125
aVUncle Vernon
p1126
aVUncle Vernon
p1127
aVUncle Vernon
p1128
aVUncle Vernon
p1129
aVUncle Vernon
p1130
aVUncle Vernon
p1131
aVUncle Vernon
p1132
aVUncle Vernon
p1133
aVUncle Vernon
p1134
aVUncle Vernon
p1135
aVUncle Vernon
p1136
aVUncle Vernon
p1137
aVUncle Vernon
p1138
aVUncle Vernon
p1139
aVUncle Vernon
p1140
aVShe and Uncle Vernon
p1141
aVUncle Vernon
p1142
aVUncle Vernon
p1143
aVof Uncle Vernon
p1144
aVUncle Vernon
p1145
aVUncle Vernon
p1146
aVUncle Vernon
p1147
aVUncle Vernon
p1148
aVUncle Vernon
p1149
aVUncle Vernon
p1150
aVUncle Vernon
p1151
aVUncle Vernon
p1152
aVUncle Vernon
p1153
aVUncle Vernon
p1154
aVUncle Vernon
p1155
aVThe boat Uncle Vernon
p1156
aVUncle Vernon
p1157
aVAunt Petunia and Uncle Vernon
p1158
aVUncle Vernon
p1159
aVUncle Vernon
p1160
aVUncle Vernon
p1161
aVUncle Vernon
p1162
aVUncle Vernon
p1163
aVUncle Vernon
p1164
aVUncle Vernon
p1165
aVUncle Vernon
p1166
aVUncle Vernon
p1167
aVUncle Vernon
p1168
aVUncle Vernon
p1169
aVUncle Vernon
p1170
aVUncle Vernon and Dudley
p1171
aVUncle Vernon wildly
p1172
aVUncle Vernon gleefully
p1173
aVVernon Dursley
p1174
aVUncle Vernon actually
p1175
aVUncle Vernon and Aunt Petunia
p1176
aVUncle Vernon and Aunt Petunia
p1177
asVErised
p1178
(lp1179
g1178
aVErised
p1180
aVErised
p1181
aVErised
p1182
aVErised again
p1183
asVMinistry
p1184
(lp1185
g1184
aVa Ministry
p1186
aVa Ministry
p1187
aVThe Ministry
p1188
aVthe Ministry
p1189
aVthe Ministry
p1190
aVthe Ministry
p1191
asVSnitch
p1192
(lp1193
Vthe Golden Snitch
p1194
aVthe Snitch
p1195
aVthe Snitch
p1196
aVthe Snitch
p1197
aVthe Snitch
p1198
aVfor the Snitch
p1199
aVthe Snitch
p1200
aVthe Snitch
p1201
aVthe Snitch
p1202
aVthe Golden Snitch
p1203
aVthe Snitch
p1204
aVthe Snitch
p1205
aVthe Snitch
p1206
aVthe Snitch
p1207
aVThe Snitch
p1208
aVthe Snitch
p1209
aVthe Snitch yet
p1210
aVthe Snitch yet
p1211
aVthe Snitch yet
p1212
aVthe Snitch yet
p1213
asVRomania
p1214
(lp1215
g1214
aVRomania
p1216
ag1216
aVRomania
p1217
ag1217
aVRomania
p1218
aVRomania
p1219
asVQuaffle
p1220
(lp1221
Vthe Quaffle
p1222
aVthe Quaffle
p1223
aVthe Quaffle
p1224
aVthe Quaffle
p1225
aVthe Quaffle
p1226
aVthe red Quaffle
p1227
aVthe Quaffle
p1228
aVthe Quaffle
p1229
aVthe Quaffle
p1230
aVQuaffle
p1231
aVthe Quaffle
p1232
aVthe Quaffle
p1233
aVthe Quaffle
p1234
aVthe Quaffle
p1235
aVQuaffle
p1236
aVthe Quaffle
p1237
aVthe Quaffle
p1238
aVthe Quaffle
p1239
aVthe Quaffle
p1240
aVthe Quaffle
p1241
asVSeamus
p1242
(lp1243
g1242
aVSeamus
p1244
aVSeamus
p1245
aVSeamus
p1246
aVSeamus
p1247
aVSeamus
p1248
aVSeamus
p1249
aVDean and Seamus
p1250
aVHarry and Seamus
p1251
aVSeamus
p1252
aVSeamus
p1253
aVSeamus
p1254
aVSeamus
p1255
aVsandy-haired Seamus Finnigan
p1256
aVSeamus Finnigan
p1257
aVSeamus Finnigan
p1258
aVthe way Seamus Finnigan
p1259
aVthe way Seamus Finnigan
p1260
aVSeamus Finnigan
p1261
aVSeamus Finnigan
p1262
aVchessmen Seamus Finnigan
p1263
aVThe Sea
p1264
aVFinnigan
p1265
aVsandy-haired Seamus Finnigan
p1266
aVSeamus Finnigan
p1267
aVSeamus Finnigan
p1268
aVthe way Seamus Finnigan
p1269
aVthe way Seamus Finnigan
p1270
aVSeamus Finnigan
p1271
aVSeamus Finnigan
p1272
aVchessmen Seamus Finnigan
p1273
asVYeah...he
p1274
(lp1275
g1274
asVproof
p1276
(lp1277
Vany proof Snape
p1278
asVQuidditch
p1279
(lp1280
Von earth Quidditch
p1281
aVQuidditch
p1282
aVQuidditch
p1283
aVQuidditch
p1284
aVQuidditch
p1285
aVQuidditch
p1286
aVQuidditch
p1287
aVQuidditch
p1288
ag1288
aVQuidditch
p1289
aVQuidditch
p1290
aVQuidditch
p1291
aVhim Quidditch
p1292
aVa Quidditch
p1293
aVQuidditch
p1294
aVQuidditch
p1295
aVQuidditch
p1296
aVa good Quidditch
p1297
aVQuidditch
p1298
aVtwo Quidditch
p1299
aVQuidditch
p1300
aVQuidditch
p1301
aVQuidditch
p1302
aVQuidditch
p1303
aVQuidditch constantly
p1304
aVThat Quidditch Cup
p1305
asVWizard
p1306
(lp1307
g1306
aVWizard Baruffio
p1308
aVwizardin
p1309
aVWizardry
p1310
aVWizardry
p1311
aVWizardry
p1312
ag1310
asVMr.
p1313
(lp1314
g1313
aVMr. Dursley
p1315
aVMr. Dursley
p1316
aVMr. Dursley
p1317
aVMr. Dursley
p1318
aVMr. Dursley
p1319
aVMr. Dursley
p1320
aVMr. Dursley
p1321
aVMr. Dursley
p1322
aVMr. Dursley loudly
p1323
aVMr. Dursley
p1324
aVMr. Dursley loudly
p1325
aVMr. Dursley
p1326
aVMr. Dursley
p1327
aVMr. Dursley
p1328
aVMr. Dursley
p1329
aVMr. Dursley
p1330
aVMr. Dursley
p1331
aVMr. Dursley
p1332
aVMr. Dursley
p1333
aVMr. Dursley
p1334
aVMr. Dursley
p1335
aVMr. Dursley
p1336
aVMr. Dursley
p1337
aVMr. Dursley
p1338
aVMr. Dursley
p1339
aVMr. H. Potter
p1340
aVMr. H. Potter
p1341
aVDear Mr. Potter
p1342
aVMr. Ollivander sharply
p1343
aVMr. Potter
p1344
aVMr. Potter
p1345
aVMr. Ollivander
p1346
aVMr. Ollivander
p1347
aVMr. Ollivander
p1348
aVMr. Ollivander
p1349
aVMr. Ollivander
p1350
aVMr. Potter
p1351
aVMr. Ollivander too
p1352
aVMr. Ollivander
p1353
ag112
aVMr. Nicolas Flamel
p1354
aVMr. Filch
p1355
aVMr. Potter
p1356
aVMr. Longbottom
p1357
aVMr. Filch
p1358
aVMr. Potter
p1359
aVMr. Ronald Weasley and Miss Granger
p1360
aVMr. Ronald Weasley
p1361
aVMr. Neville Longbottom
p1362
asVWizards
p1363
(lp1364
g1363
aVWizards
p1365
aVGreat Wizards
p1366
aVGreat Wizards
p1367
asVsomething
p1368
(lp1369
Vsomething Harry and Ron
p1370
aVsomething Dumbledore
p1371
asVChristmas
p1372
(lp1373
g1372
aVChristmas
p1374
aVChristmas
p1375
aVChristmas
p1376
ag1376
aVChristmas
p1377
aVMerry Christmas
p1378
aVyour Christmas
p1379
aVyour Christmas
p1380
aVA Very Merry Christmas
p1381
aVMerry Christmas
p1382
aVChristmas
p1383
aVAnother Christmas
p1384
aVthe Christmas
p1385
aVChristmas
p1386
aVChristmas
p1387
aVChristmas
p1388
aVChristmas Eve
p1389
aVChristmas Eve
p1390
asVGryffindor
p1391
(lp1392
g1391
aVGryffindor
p1393
aVGryffindor
p1394
aVGryffindor
p1395
ag1395
aVhim a Gryffindor
p1396
aVThe Gryffindor
p1397
aVthe Gryffindor
p1398
aVGryffindor
p1399
aVGryffindor
p1400
aVin the Gryffindor
p1401
aVGryffindor
p1402
aVGryffindor
p1403
aVthe Gryffindor
p1404
aVGryffindor
p1405
aVGryffindor
p1406
aVGryffindor
p1407
ag1407
aVGryffindor
p1408
aVYou each win Gryffindor
p1409
aVGryffindor
p1410
aVGryffindor
p1411
aVGryffindor
p1412
aVThe Gryffindor
p1413
aVGryffindor
p1414
aVGryffindor
p1415
aVGryffindor
p1416
aVGryffindor
p1417
aVGryffindor
p1418
aVGryffindor
p1419
aVthe Gryffindor
p1420
aVGryffindor
p1421
aVthe Gryffindor
p1422
aVGryffindor
p1423
aVthe Gryffindor
p1424
aVGryffindor
p1425
aVGryffindor
p1426
aVGryffindor
p1427
aVGryffindor
p1428
aVGryffindor
p1429
aVGryffindor
p1430
aVThat put Gryffindor
p1431
aVGryffindor
p1432
aVGryffindor
p1433
aVGryffindor
p1434
aVGryffindor
p1435
aVGryffindor
p1436
aVGryffindor
p1437
aVGryffindor
p1438
aVGryffindor
p1439
aVGryffindor House
p1440
aVthe Gryffindor Beater
p1441
aVGryffindor now
p1442
aVnew Gryffindors
p1443
aVthe Gryffindors
p1444
aVthe Gryffindors
p1445
aVthe Gryffindors
p1446
aVGryffindors
p1447
aVthe Gryffindors
p1448
aVGryffindors apart
p1449
aVnew Gryffindors
p1450
ag1443
aVthe other Gryffindors
p1451
ag1445
aVGryffindors
p1452
ag1447
aVGryffindors apart
p1453
aVfirst-year Gryffindors only
p1454
asVfuriously
p1455
(lp1456
VHarry furiously
p1457
aVHarry furiously
p1458
aVRon furiously
p1459
aVhe beat the Bludger furiously
p1460
aVDean furiously
p1461
aVHagrid furiously
p1462
asVHermione
p1463
(lp1464
g1463
aVHermione
p1465
aVHermione
p1466
aVHermione
p1467
aVHermione
p1468
aVHermione
p1469
aVHermione
p1470
aVHermione
p1471
aVHermione
p1472
aVHermione
p1473
aVHermione
p1474
aVHermione
p1475
aVHermione
p1476
ag1476
aVHermione
p1477
aVHermione
p1478
aVHermione
p1479
aVHermione
p1480
aVHermione
p1481
aVHermione
p1482
aVHermione
p1483
ag1483
aVHermione
p1484
aVHermione
p1485
aVHermione
p1486
aVHermione
p1487
aVHermione
p1488
aVHermione
p1489
aVHermione
p1490
aVHermione
p1491
aVHermione
p1492
aVHermione
p1493
aVHermione
p1494
aVHermione
p1495
aVHermione
p1496
aVHermione
p1497
aVHermione
p1498
aVHermione
p1499
aVHermione
p1500
aVHermione
p1501
aVHermione
p1502
aVHermione
p1503
aVHermione
p1504
aVHermione
p1505
aVHermione
p1506
aVHermione
p1507
aVHermione
p1508
aVHermione
p1509
aVHermione
p1510
aVHermione
p1511
aVHermione
p1512
aVHermione
p1513
aVHermione
p1514
aVHermione
p1515
aVHermione
p1516
aVHermione
p1517
aVHermione
p1518
aVHermione
p1519
aVHermione
p1520
aVHermione
p1521
aVHermione
p1522
aVHermione
p1523
aVHermione
p1524
aVHermione
p1525
ag1525
aVHermione
p1526
aVHermione
p1527
aVHermione
p1528
aVHermione
p1529
aVHermione
p1530
ag1530
aVHermione
p1531
ag1531
aVHermione
p1532
aVHermione
p1533
aVHermione
p1534
aVHermione
p1535
aVHermione
p1536
aVHermione
p1537
aVHermione
p1538
aVHermione
p1539
aVHermione
p1540
aVHermione
p1541
aVHermione
p1542
aVHermione
p1543
aVHermione
p1544
aVHermione
p1545
aVHermione
p1546
aVHermione
p1547
aVHermione
p1548
aVHermione
p1549
aVHermione
p1550
aVHermione
p1551
aVHermione
p1552
aVHermione
p1553
aVHermione
p1554
aVHermione
p1555
aVHermione
p1556
aVHermione
p1557
aVHermione
p1558
aVHermione
p1559
aVHermione
p1560
aVHermione
p1561
aVHermione
p1562
aVHermione
p1563
aVHermione
p1564
aVHermione
p1565
aVHermione
p1566
aVHermione
p1567
aVHermione
p1568
aVHermione
p1569
aVHermione
p1570
aVHermione
p1571
aVHermione
p1572
aVHermione
p1573
aVHermione
p1574
aVHermione
p1575
aVHermione
p1576
ag1576
aVHermione
p1577
aVHermione
p1578
aVHermione
p1579
ag1578
ag1579
aVHermione
p1580
ag1580
aVHermione
p1581
aVHermione
p1582
aVHermione
p1583
aVHermione
p1584
aVHermione
p1585
aVHermione
p1586
aVHermione
p1587
aVHermione
p1588
aVHermione
p1589
aVHermione
p1590
aVHermione
p1591
aVHermione
p1592
aVHermione
p1593
aVHermione
p1594
aVhim and Hermione
p1595
aVHermione
p1596
aVHermione
p1597
aVHermione
p1598
aVHermione
p1599
aVHermione
p1600
aVHermione
p1601
aVHermione
p1602
aVHermione
p1603
aVHermione
p1604
aVHermione
p1605
aVHermione
p1606
aVHermione
p1607
aVleast Hermione
p1608
aVHermione
p1609
aVHermione
p1610
aVHermione
p1611
aVHermione
p1612
aVHermione
p1613
aVHermione
p1614
aVHermione
p1615
aVHermione
p1616
aVHermione
p1617
aVHermione
p1618
aVHermione
p1619
aVHermione
p1620
aVHermione
p1621
aVHermione
p1622
aVHermione
p1623
aVHermione
p1624
aVHermione
p1625
aVHermione
p1626
aVHermione
p1627
aVHermione
p1628
aVHermione
p1629
aVHermione
p1630
aVHermione
p1631
aVHermione
p1632
aVHermione
p1633
aVHarry and Hermione
p1634
aVHermione
p1635
aVHermione
p1636
aVHermione
p1637
aVHarry and Hermione
p1638
aVHarry and Hermione
p1639
aVHermione
p1640
aVHarry and Hermione
p1641
ag1640
aVHarry and Hermione
p1642
aVHermione
p1643
aVHermione
p1644
aVHermione
p1645
aVHermione
p1646
aVHermione
p1647
aVHermione
p1648
aVHermione
p1649
aVHermione
p1650
aVHermione
p1651
aVHermione
p1652
aVHermione
p1653
aVHermione
p1654
aVHermione
p1655
aVRon and Hermione
p1656
aVHermione
p1657
aVHermione
p1658
aVHermione
p1659
aVRon and Hermione
p1660
aVHermione
p1661
aVHermione
p1662
aVHermione
p1663
aVHermione
p1664
aVRon and Hermione
p1665
aVHermione
p1666
aVHermione Granger
p1667
aVHermione Granger
p1668
aVHermione Granger
p1669
aVHermione Granger
p1670
aVHermione Granger
p1671
aVHermione Granger
p1672
aVHermione Granger
p1673
aVHermione Granger
p1674
aVHermione ever
p1675
aVHermione thoughtfully
p1676
aVHermione and Harry
p1677
aVHermione and Neville
p1678
aVHermione Granger
p1679
aVHermione faintly
p1680
aVHermione always
p1681
aVHermione grimly
p1682
aVHermione nervously
p1683
asVHooch
p1684
(lp1685
VMadam Hooch
p1686
aVMadam Hooch
p1687
aVMadam Hooch
p1688
aVMadam Hooch
p1689
aVMadam Hooch
p1690
aVMadam Hooch
p1691
aVMadam Hooch
p1692
aVMadam Hooch
p1693
aVMadam Hooch
p1694
aVMadam Hooch
p1695
aVMadam Hooch
p1696
aVMadam Hooch then
p1697
asVDudley
p1698
(lp1699
g1698
aVDudley
p1700
aVa screaming Dudley
p1701
aVDudley
p1702
aVDudley
p1703
aVDudley
p1704
aVDudley
p1705
aVDudley
p1706
aVall Dudley
p1707
aVthough Dudley
p1708
aVDudley
p1709
aVDudley
p1710
aVDudley
p1711
aVDudley
p1712
aVDudley
p1713
ag1706
aVall Dudley
p1714
aVthough Dudley
p1715
ag1709
ag1710
ag1711
ag1712
ag1713
aVDudley
p1716
aVDudley
p1717
aVDudley
p1718
aVDudley
p1719
aVthe time Dudley
p1720
ag1716
ag1717
ag1718
ag1719
aVDudley
p1721
aVDudley
p1722
aVDudley
p1723
aVDudley
p1724
aVDudley
p1725
aVDudley
p1726
aVDudley
p1727
aVDudley
p1728
aVDudley
p1729
aVDudley
p1730
aVDudley
p1731
aVDudley
p1732
aVDudley
p1733
aVDudley
p1734
aVDudley
p1735
aVDudley
p1736
aVDudley
p1737
ag1735
ag1736
ag1737
aVDudley
p1738
aVDudley
p1739
aVDudley
p1740
ag1738
ag1739
ag1740
aVDudley
p1741
aVDudley
p1742
aVUncle Vernon and Dudley
p1743
aVDudley
p1744
aVPiers and Dudley
p1745
aVDudley
p1746
aVDudley
p1747
aVDudley
p1748
aVDudley
p1749
aVno escaping Dudley
p1750
aVDudley
p1751
aVDudley
p1752
aVDudley
p1753
aVDudley
p1754
aVDudley
p1755
aVDudley
p1756
aVDudley
p1757
aVDudley
p1758
aVDudley
p1759
ag1756
ag1757
ag1758
ag1759
aVsome of Dudley
p1760
aVDudley
p1761
aVDudley
p1762
aVDudley
p1763
aVDudley
p1764
aVDudley
p1765
aVDudley
p1766
aVDudley
p1767
aVDudley
p1768
aVDudley
p1769
aVDudley
p1770
aVDudley
p1771
aVDudley
p1772
aVDudley
p1773
aVDudley
p1774
aVDudley
p1775
aVDudley
p1776
aVDudley
p1777
aVDudley
p1778
aVDudley
p1779
aVDudley
p1780
aVDudley
p1781
aVDudley
p1782
aVDudley
p1783
aVDudley
p1784
aVDudley
p1785
aVDudley
p1786
aVDudley
p1787
aVDudley
p1788
aVDudley
p1789
aVDudley
p1790
aVDudley
p1791
aVDudley
p1792
aVDudley
p1793
aVDudley
p1794
aVDudley
p1795
aVDudley
p1796
aVDudley
p1797
aVDudley
p1798
aVDudley
p1799
aVDudley
p1800
aVDudley
p1801
aVDudley
p1802
aVDudley
p1803
aVDudley
p1804
aVDudley
p1805
aVDudley
p1806
aVDudley
p1807
aVDudley
p1808
aVDudley
p1809
aVDudley
p1810
aVDudley
p1811
aVDudley Dursley
p1812
aVDudley and Piers
p1813
aVDudley and Piers
p1814
aVDudley and Piers
p1815
aVDudley and Piers
p1816
aVDudley and Piers
p1817
aVDudley and Uncle Vernon
p1818
aVHarry and Dudley promptly
p1819
aVher Ickle Dudleykins
p1820
aVhis cousin Dudley....He
p1821
ag1820
asVMcGonagall
p1822
(lp1823
VMcGonagall
p1824
aVProfessor McGonagall
p1825
aVProfessor McGonagall
p1826
aVProfessor McGonagall
p1827
aVProfessor McGonagall
p1828
aVProfessor McGonagall
p1829
aVProfessor McGonagall
p1830
aVProfessor McGonagall
p1831
aVProfessor McGonagall
p1832
aVProfessor McGonagall
p1833
aVProfessor McGonagall
p1834
aVProfessor McGonagall
p1835
aVProfessor McGonagall
p1836
aVProfessor McGonagall
p1837
aVProfessor McGonagall
p1838
aVProfessor McGonagall
p1839
aVMcGonagall
p1840
aVProfessor McGonagall
p1841
aVProfessor McGonagall
p1842
aVProfessor McGonagall
p1843
aVProfessor McGonagall
p1844
aVProfessor McGonagall
p1845
aVProfessor McGonagall
p1846
aVProfessor McGonagall
p1847
aVProfessor McGonagall
p1848
aVProfessor McGonagall
p1849
aVProfessor McGonagall
p1850
aVProfessor McGonagall
p1851
aVProfessor McGonagall
p1852
aVProfessor McGonagall
p1853
aVProfessor McGonagall
p1854
aVProfessor McGonagall
p1855
aVProfessor McGonagall
p1856
aVProfessor McGonagall
p1857
aVProfessor McGonagall
p1858
aVProfessor McGonagall
p1859
aVProfessor McGonagall
p1860
aVProfessor McGonagall
p1861
aVProfessor McGonagall
p1862
aVProfessor McGonagall
p1863
aVProfessor McGonagall
p1864
aVProfessor McGonagall
p1865
aVProfessor McGonagall
p1866
aVProfessor McGonagall
p1867
aVProfessor McGonagall
p1868
aVProfessor McGonagall
p1869
aVProfessor McGonagall
p1870
aVsure Professor McGonagall
p1871
aVProfessor McGonagall
p1872
aVMcGonagall
p1873
aVProfessor McGonagall
p1874
aVProfessor McGonagall coldly
p1875
aVProfessor McGonagall grudgingly
p1876
aVProfessor McGonagall now
p1877
aVProfessor McGonagall and Professor Flitwick
p1878
asVWho'd
p1879
(lp1880
g1879
asVStalagmite
p1881
(lp1882
g1881
asValways
p1883
(lp1884
VMr. Dursley always
p1885
aVMr. Dursley always
p1886
aVHermione always
p1887
aVI'd always
p1888
aVWhite always
p1889
aVSnape always
p1890
asVPotter
p1891
(lp1892
VMrs. Potter
p1893
aVPotter
p1894
aVPotter
p1895
ag1894
ag1895
aVPotter
p1896
aVLily and James Potter
p1897
aVthe Potter
p1898
aVHarry Potter
p1899
aVHarry Potter
p1900
aVHarry Potter
p1901
aVHarry Potter
p1902
aVHarry Potter
p1903
aVodd Harry Potter
p1904
aVMr. H. Potter
p1905
aVMr. H. Potter
p1906
aVyou Mr. H. Potter
p1907
aVMr. H. Potter
p1908
aVMr. H. Potter
p1909
aVDear Mr. Potter
p1910
aVJames Potter
p1911
aVHarry Potter
p1912
aVJames Potter
p1913
aVMr. Potter
p1914
aVMr. Potter
p1915
aVMr. Potter
p1916
aVMr. Potter
p1917
aVMr. Harry Potter
p1918
aVHarry Potter
p1919
aVMr. Potter
p1920
aVMr. Potter
p1921
aVMr. Potter
p1922
aVMr. Potter
p1923
aVHarry Potter
p1924
aVHarry Potter
p1925
aVyou really Harry Potter
p1926
aVHarry Potter
p1927
aVHarry Potter
p1928
aVPotter
p1929
aVPotter
p1930
aVPotter
p1931
aVPotter
p1932
aVThe Harry Potter
p1933
aVPotter
p1934
aVPotter
p1935
aVHarry Potter
p1936
aVPotter
p1937
aVPotter
p1938
aVPotter
p1939
aVPotter
p1940
aVPotter
p1941
aVPotter
p1942
aVPotter
p1943
aVPotter
p1944
aVPotter
p1945
aVPotter
p1946
aVPotter
p1947
aVPotter
p1948
aVPotter
p1949
aVPotter
p1950
aVPotter
p1951
aVPotter
p1952
aVPotter
p1953
aVPotter
p1954
aVPotter
p1955
aVPotter
p1956
aVPotter
p1957
aVPotter
p1958
aVlong Potter
p1959
aVPotter
p1960
aVPotter
p1961
aVHarry Potter
p1962
aVMr. Potter
p1963
aVPotter
p1964
aVHarry Potter
p1965
aVthe famous Harry Potter
p1966
aVThanks Potter
p1967
aVHarry Potter
p1968
aVHarry Potter
p1969
aVMr. Potter
p1970
aVHarry Potter
p1971
aVPotter
p1972
aVPotter
p1973
aVPotter
p1974
aVPotter
p1975
aVPotter
p1976
aVPotter
p1977
aVPotter
p1978
aVPotter
p1979
aVPotter
p1980
aVHarry Potter
p1981
aVMr. Harry Potter
p1982
aVPotter
p1983
aVHarry Potter
p1984
aVHarry Potter not
p1985
aVMr. Potter....After
p1986
aVJames
p1987
aVLily and James Potter
p1988
aVJames Potter
p1989
aVJames Potter
p1990
aVLily and James...I
p1991
aVMr. Potter....After
p1992
asVcalmly
p1993
(lp1994
VDumbledore calmly
p1995
asVanxiously
p1996
(lp1997
VHarry anxiously
p1998
aVHarry anxiously
p1999
aVHarry anxiously
p2000
asVD'yeh
p2001
(lp2002
g2001
asVblankly
p2003
(lp2004
VHarry blankly
p2005
asVScabbers
p2006
(lp2007
g2006
aVScabbers
p2008
aVScabbers
p2009
aVScabbers
p2010
aVScabbers
p2011
aVScabbers
p2012
aVScabbers
p2013
aVthe sheets Scabbers
p2014
aVScabbers
p2015
aVScabbers instead
p2016
aVScabbers finally
p2017
asVNo...you
p2018
(lp2019
g2018
asVFilch
p2020
(lp2021
VMr. Filch
p2022
aVArgus Filch
p2023
aVFilch
p2024
aVFilch
p2025
aVFilch
p2026
aVfor Filch
p2027
aVFilch
p2028
aVArgus Filch
p2029
ag2024
ag2025
ag2026
aVfor Filch
p2030
ag2028
aVFilch
p2031
aVFilch
p2032
aVFilch
p2033
aVFilch
p2034
aVFilch
p2035
aVFilch
p2036
aVFilch
p2037
aVFilch
p2038
aVFilch
p2039
aVFilch
p2040
aVFilch
p2041
aVFilch
p2042
aVFilch
p2043
aVhe'd take Filch
p2044
aVFilch
p2045
aVhe'd take Filch
p2046
ag2045
aVSnape and Filch
p2047
aVFilch
p2048
aVSnape and Filch
p2049
ag2048
aVFilch
p2050
aVFilch
p2051
aVFilch
p2052
aVFilch
p2053
ag2051
ag2052
ag2053
aVFilch
p2054
aVFilch
p2055
aVFilch
p2056
aVFilch
p2057
aVFilch
p2058
ag2058
aVFilch
p2059
aVMr. Filch
p2060
aVFilch
p2061
aVMr. Filch
p2062
aVFilch
p2063
aVFilch
p2064
aVFilch
p2065
aVFilch
p2066
aVFilch
p2067
aVFilch
p2068
aVFilch
p2069
aVFilch
p2070
aVFilch
p2071
aVFilch
p2072
aVFilch or Mrs. Norris
p2073
aVFilch or Mrs. Norris
p2074
aVFilch or Mrs. Norris
p2075
aVFilch and Snape
p2076
aVFilch and Snape
p2077
aVFilch and Snape
p2078
aVFilch and Snape
p2079
aVFilch coldly
p2080
asVYou-Know-Who
p2081
(lp2082
g2081
aVYou-Know-Who
p2083
aVYou-Know-Who
p2084
aVYou-Know-Who
p2085
aVYou-Know-Who
p2086
aVone You-Know-Who
p2087
aVYou-Know-Who
p2088
aVYou-Know-Who
p2089
aVYou-Know-Who
p2090
aVYou-Know-Who
p2091
aVYou-Know-Who
p2092
aVYou-Know-Who
p2093
aVYou-Know-Who
p2094
aVYou-Know-Who
p2095
aVin case You-Know-Who
p2096
aVevery time You-Know-Who
p2097
aVYou-Know-Who
p2098
aVone You-Know-Who
p2099
aVYou-Know-Who
p2100
aVYou-Know-Who
p2101
aVYou-Know-Who
p2102
aVYou-Know-Who never
p2103
asVdarkly
p2104
(lp2105
VHagrid darkly
p2106
aVRon darkly
p2107
aVHarry darkly
p2108
asVGringotts
p2109
(lp2110
g2109
aVGringotts
p2111
aVGringotts
p2112
aVGringotts
p2113
aVGringotts
p2114
aVGringotts
p2115
aVGringotts
p2116
aVGringotts
p2117
aVGringotts
p2118
aVGringotts
p2119
aVGringotts
p2120
aVround Gringotts
p2121
aVGringotts
p2122
aVGringotts
p2123
aVa Gringotts
p2124
aVGringotts
p2125
aVGringotts
p2126
aVGringotts
p2127
aVof Gringotts
p2128
aVGringotts
p2129
aVGringotts
p2130
aVGringotts
p2131
aVvisit Gringotts anyway
p2132
aVvisit Gringotts anyway
p2133
asVthing
p2134
(lp2135
VThe last thing Harry
p2136
aVother strange things Harry
p2137
asVMirror
p2138
(lp2139
Vthe Mirror
p2140
aVthe Mirror
p2141
aVthe Mirror
p2142
aVThe Mirror
p2143
aVthe Mirror
p2144
aVthe Mirror
p2145
asValready
p2146
(lp2147
VQuirrell already
p2148
asVBeaters
p2149
(lp2150
g2149
aVtwo Beaters
p2151
aVBeaters
p2152
aVthe Gryffindor Beater
p2153
asVBlack
p2154
(lp2155
VYoung Sirius Black
p2156
aVthe Black Forest
p2157
aVthe Black Forest
p2158
asVHe-Who-Must-Not-Be-Named
p2159
(lp2160
g2159
asVMonday
p2161
(lp2162
g2161
aVMonday
p2163
aVMonday
p2164
asVPatil
p2165
(lp2166
g2165
aVPatil
p2167
aVParvati Patil
p2168
aVMiss Patil
p2169
aVParvati Patil
p2170
aVParvati Patil
p2171
aVParvati
p2172
aVParvati Patil
p2173
aVParvati Patil
p2174
aVParvati Patil
p2175
asVUncle
p2176
(lp2177
VUncle Vernon and Dudley
p2178
aVUncle Vernon and Aunt Petunia
p2179
ag175
aVAunt Petunia and Uncle Vernon
p2180
aVAunt Petunia and Uncle Vernon
p2181
aVUncle Vernon
p2182
aVUncle Vernon
p2183
aVUncle Vernon
p2184
aVHarry and Uncle Vernon
p2185
aVUncle Vernon
p2186
aVUncle Vernon
p2187
aVUncle Vernon
p2188
aVUncle Vernon
p2189
aVUncle Vernon
p2190
aVUncle Vernon
p2191
aVUncle Vernon
p2192
aVUncle Vernon
p2193
aVUncle Vernon
p2194
aVUncle Vernon
p2195
aVUncle Vernon
p2196
aVUncle Vernon
p2197
aVUncle Vernon
p2198
aVUncle Vernon
p2199
aVUncle Vernon
p2200
aVUncle Vernon
p2201
aVthe moment Uncle Vernon
p2202
aVUncle Vernon
p2203
aVUncle Vernon
p2204
aVUncle Vernon
p2205
aVUncle Vernon
p2206
aVUncle Vernon
p2207
ag1122
ag1124
ag1126
ag1128
ag1130
ag1132
ag1134
ag1136
ag1138
ag1140
aVthem and Uncle Vernon
p2208
ag1143
ag1145
ag1147
ag1149
aVthis at Uncle Vernon
p2209
aVAunt Petunia and Uncle Vernon
p2210
ag1153
ag1155
ag1157
ag1159
ag1161
ag1163
ag1165
ag1167
ag1169
aVUncle Vernon nearly
p2211
ag1171
aVUncle Vernon shortly
p2212
aVUncle Vernon and Aunt Petunia
p2213
aVUncle Vernon suddenly
p2214
aVUncle Vernon certainly
p2215
ag1176
aVHarry and Uncle Vernon
p2216
aVGreat Uncle Algie
p2217
aVGreat Uncle Algie
p2218
aVUncle Vernon shortly
p2219
asVMarge
p2220
(lp2221
VAuntie Marge
p2222
aVMarge
p2223
aVsister Marge
p2224
aVMarge
p2225
aVMarge
p2226
asVRidgeback
p2227
(lp2228
Va Norwegian Ridgeback
p2229
aVthe Norwegian Ridgeback
p2230
aVthe Ridgeback
p2231
aVNorwegian Ridgebacks
p2232
asVpast
p2233
(lp2234
Vpast McGonagall
p2235
aVanything past Snape
p2236
aVpast Quirrell
p2237
asVidly
p2238
(lp2239
VQuirrell idly
p2240
asVOliver
p2241
(lp2242
g2241
aVOliver Wood
p2243
aVOliver Wood
p2244
aVOliver Wood
p2245
aVOliver Wood
p2246
asVFather
p2247
(lp2248
g2247
asVgently
p2249
(lp2250
VDumbledore gently
p2251
aVHarry gently
p2252
aVDumbledore gently
p2253
asVdreamily
p2254
(lp2255
VDumbledore dreamily
p2256
asVHe'd
p2257
(lp2258
g2257
aVHe'd
p2259
aVHe'd
p2260
aVHe'd
p2261
aVHe'd
p2262
ag2262
aVHe'd
p2263
ag2263
aVHe'd
p2264
aVHe'd
p2265
aVHe'd
p2266
aVHe'd
p2267
aVHe'd
p2268
aVHe'd never
p2269
aVHe'd never
p2270
aVHe'd never
p2271
aVHe'd just
p2272
aVHe'd just
p2273
asVgloomily
p2274
(lp2275
VHarry gloomily
p2276
asVChaser
p2277
(lp2278
Van excellent Chaser
p2279
aVChaser Angelina Johnson
p2280
aVChaser Katie Bell
p2281
aVChaser Pucey ducks two Bludgers
p2282
aVChaser Bell
p2283
aVChaser Katie Bell
p2284
aVChaser Bell
p2285
aVBell
p2286
asVbriskly
p2287
(lp2288
VHermione briskly
p2289
asVHannah
p2290
(lp2291
g2290
aVHannah
p2292
aVHannah
p2293
asVBane
p2294
(lp2295
g2294
aVBane
p2296
aVRonan and Bane
p2297
aVBane
p2298
ag2298
aVRonan and Bane
p2299
aVBane
p2300
aVBane
p2301
aVBane
p2302
aVBane
p2303
aVBane
p2304
aVRonan and Bane
p2305
aVBane
p2306
aVif Bane
p2307
asVHall
p2308
(lp2309
Vthe Great Hall
p2310
aVthe Great Hall
p2311
aVthe Great Hall
p2312
aVthe Great Hall
p2313
aVof the Great Hall
p2314
aVthe Great Hall
p2315
aVthe Great Hall
p2316
aVthe Great Hall
p2317
aVthe Great Hall
p2318
aVthe Great Hall
p2319
aVthe Great Hall
p2320
aVThe Great Hall
p2321
aVthe Great Hall
p2322
aVsee the Great Hall
p2323
aVthe Great Hall
p2324
aVthe Great Hall
p2325
aVthe Great Hall
p2326
aVHalloween
p2327
aVHalloween
p2328
aVat Halloween
p2329
aVHalloween
p2330
asVopposite
p2331
(lp2332
Vthe seat opposite Harry
p2333
asVletter
p2334
(lp2335
Vthe letter Dumbledore
p2336
asVHedwig
p2337
(lp2338
Vher Hedwig
p2339
aVHedwig
p2340
aVHedwig
p2341
aVHedwig
p2342
aVof Hedwig
p2343
aVof Hedwig
p2344
aVHedwig
p2345
aVHedwig
p2346
aVHedwig
p2347
aVHedwig
p2348
aVHedwig
p2349
aVHedwig
p2350
aVHedwig
p2351
aVHedwig
p2352
asVMommy
p2353
(lp2354
g2353
aVMommy
p2355
aVthat moment Neville
p2356
ag2202
aVthe moment Hermione
p2357
asVOllivander
p2358
(lp2359
VMr. Ollivander
p2360
aVMr. Ollivander
p2361
aVthe more wands Mr. Ollivander
p2362
aVMr. Ollivander
p2363
aVMr. Ollivander
p2364
aVMr. Ollivander
p2365
aVMr. Ollivander sharply
p2366
aVOllivanders
p2367
aVthe door read Ollivanders
p2368
ag2367
ag2368
asVpompously
p2369
(lp2370
VPercy Weasley pompously
p2371
aVPercy Weasley pompously
p2372
asVearth
p2373
(lp2374
Von earth
p2375
aVon earth
p2376
aVon earth
p2377
aVon earth
p2378
aVon earth
p2379
aVon earth
p2380
aVon earth
p2381
aVon earth
p2382
aVon earth
p2383
aVon earth
p2384
aVon earth Quidditch
p2385
asVHat
p2386
(lp2387
g2386
aVThe Sorting Hat
p2388
ag2386
aVThe Sorting Hat
p2389
aVThe Sorting Hat
p2390
aVthe Sorting Hat away
p2391
asVFang
p2392
(lp2393
g2392
aVFang
p2394
aVFang
p2395
aVFang
p2396
aVFang
p2397
aVFang
p2398
aVFang
p2399
aVme or Fang
p2400
aVFang
p2401
aVFang
p2402
aVFang
p2403
aVFang
p2404
aVFang
p2405
ag2405
aVFang
p2406
aVMalfoy and Fang
p2407
aVFang
p2408
ag2408
aVFang
p2409
ag2409
aVFang sometime
p2410
aVFang sometime
p2411
asVonly
p2412
(lp2413
VHarry only
p2414
aVfirst-year Gryffindors only
p2415
aVMalfoy only
p2416
aVWands only
p2417
aVQuidditch only
p2418
aVHarry only
p2419
aVRon only
p2420
aVthe only Stone currently
p2421
asVHogwarts
p2422
(lp2423
g2422
aVHogwarts
p2424
aVall about Hogwarts
p2425
aVHogwarts
p2426
aVHogwarts
p2427
aVHogwarts
p2428
aVHogwarts
p2429
aVter Hogwarts
p2430
aVHogwarts
p2431
aVcept maybe Hogwarts
p2432
aVHogwarts
p2433
aVHogwarts
p2434
aVHogwarts
p2435
aVHogwarts
p2436
aVHogwarts
p2437
aVHogwarts
p2438
aVHogwarts
p2439
aVHogwarts
p2440
aVHogwarts
p2441
aVHogwarts
p2442
aVHogwarts
p2443
aVHogwarts
p2444
aVHogwarts
p2445
aVHogwarts
p2446
ag2446
aVHogwarts
p2447
aVHogwarts
p2448
ag2448
aVyou a Hogwarts
p2449
aVHogwarts
p2450
aVHogwarts
p2451
aVHogwarts
p2452
aVHogwarts
p2453
aVHogwarts
p2454
aVHogwarts
p2455
aVHogwarts
p2456
aVthe Hogwarts
p2457
aVthe Hogwarts
p2458
aVHogwarts
p2459
aVHogwarts
p2460
aVHogwarts
p2461
aVHoggy Warty Hogwarts
p2462
aVHogwarts
p2463
ag2463
aVHogwarts
p2464
aVof Hogwarts
p2465
aVHogwarts
p2466
aVHogwarts
p2467
aVHogwarts
p2468
aVHogwarts
p2469
aVHogwarts
p2470
aVHogwarts
p2471
aVHogwarts
p2472
aVHogwarts
p2473
ag2473
aVHogwarts
p2474
aVat Hogwarts
p2475
aVHogwarts
p2476
aVHogwarts
p2477
aVHogwarts
p2478
aVHogwarts
p2479
aVany Hogwarts
p2480
aVHogwarts
p2481
aVof chess Hogwarts
p2482
aVHogwarts
p2483
aVoff ter Hogwarts not
p2484
aVthe greatest headmaster Hogwarts ever
p2485
aVthe Hogwarts Express
p2486
asVGranger
p2487
(lp2488
VGranger
p2489
aVHermione Granger
p2490
aVHermione Granger
p2491
aVHermione Granger
p2492
aVHermione Granger
p2493
aVHermione Granger
p2494
aVHermione Granger
p2495
aVHermione Granger
p2496
aVMiss Granger
p2497
aVHermione Granger
p2498
aVMiss Granger
p2499
aVHermione Granger
p2500
aVMr. Ronald Weasley and Miss Granger
p2501
aVGran
p2502
aVGran
p2503
ag2502
asVMuggles
p2504
(lp2505
g2504
aVthe Muggles
p2506
aVthe Muggles
p2507
aVthe Muggles
p2508
aVthe Muggles
p2509
aVMuggles
p2510
aVthe Muggles
p2511
aVMuggles
p2512
aVMuggles
p2513
aVMuggles
p2514
aVthe Muggles
p2515
aVMuggles
p2516
ag2516
aVthe Muggles
p2517
aVMuggles
p2518
aVMuggles
p2519
aVthe Muggles
p2520
aVa Muggle
p2521
aVa Muggle
p2522
aVter see a great Muggle
p2523
aVA Muggle
p2524
aVa great Muggle
p2525
aVa Muggle
p2526
aVthe feeble Muggle
p2527
aVa Muggle
p2528
asVMagic
p2529
(lp2530
g2529
aVMagic
p2531
aVMagic
p2532
aVMagic
p2533
aVMagic
p2534
ag2534
aVMagic
p2535
aVMagic
p2536
aVMagic
p2537
aVMagic
p2538
aVMagic
p2539
aVpowerful Dark Magic never
p2540
aVpowerful Dark Magic never
p2541
asVBaron
p2542
(lp2543
VThe Bloody Baron
p2544
aVthe Bloody Baron
p2545
aVthe Baron
p2546
aVThe Bloody Baron
p2547
aVthe Bloody Baron
p2548
aVthe Bloody Baron
p2549
aVthe Bloody Baron
p2550
aVMr. Baron
p2551
aVBaron
p2552
asVFlamel
p2553
(lp2554
VNicolas Flamel
p2555
aVNicolas Flamel
p2556
aVNicolas Flamel
p2557
aVNicolas Flamel
p2558
aVFlamel
p2559
aVFlamel
p2560
aVif Flamel
p2561
ag2559
ag2560
aVif Flamel
p2562
aVFlamel
p2563
ag2563
aVFlamel
p2564
aVFlamel
p2565
aVFlamel
p2566
ag2566
aVFlamel
p2567
aVFlamel
p2568
aVNicolas Flamel
p2569
aVFlamel
p2570
aVNicolas Flamel
p2571
ag2570
aVFlamel
p2572
aVNicolas Flamel
p2573
aVNicolas Flamel
p2574
aVMr. Nicolas Flamel
p2575
aVMr. Flamel
p2576
aVFlamel
p2577
aVFlamel
p2578
aVNicolas Flamel
p2579
aVNicolas Flamel
p2580
aVNicolas Flamel
p2581
aVFlamel
p2582
asVtwice
p2583
(lp2584
VHagrid twice
p2585
asVsoftly
p2586
(lp2587
VRon softly
p2588
asVKnuts
p2589
(lp2590
Vhim five Knuts
p2591
aVKnuts
p2592
aVlittle bronze Knuts
p2593
aVtwenty-nine Knuts
p2594
aVfive Knuts
p2595
aVseven bronze Knuts
p2596
asVmiserably
p2597
(lp2598
VHermione miserably
p2599
asVMalfoy
p2600
(lp2601
g2600
aVMalfoy
p2602
aVMalfoy
p2603
aVMalfoy
p2604
aVMalfoy
p2605
aVMalfoy
p2606
aVMalfoy
p2607
aVMalfoy
p2608
aVMalfoy
p2609
aVMalfoy
p2610
aVMalfoy
p2611
aVMalfoy
p2612
aVMalfoy
p2613
aVMalfoy
p2614
aVMalfoy
p2615
aVMalfoy
p2616
ag2615
ag2616
aVDraco Malfoy
p2617
aVMalfoy
p2618
aVMalfoy
p2619
aVMalfoy
p2620
aVMalfoy
p2621
aVMalfoy
p2622
aVMalfoy
p2623
aVMalfoy
p2624
aVMalfoy
p2625
aVMalfoy
p2626
aVMalfoy
p2627
aVMalfoy
p2628
aVMalfoy
p2629
aVMalfoy
p2630
aVMalfoy
p2631
ag2631
aVMalfoy
p2632
aVMalfoy
p2633
aVMalfoy
p2634
aVMalfoy
p2635
aVMalfoy
p2636
aVyou and Malfoy
p2637
aVMalfoy
p2638
aVMalfoy
p2639
aVhis wand in case Malfoy
p2640
aVMalfoy
p2641
aVMalfoy
p2642
aVMalfoy
p2643
aVMalfoy
p2644
aVMalfoy
p2645
aVMalfoy
p2646
aVMalfoy
p2647
aVMalfoy
p2648
aVMalfoy
p2649
aVMalfoy
p2650
aVMalfoy
p2651
aVDraco Malfoy
p2652
aVMalfoy
p2653
aVMalfoy
p2654
ag2653
ag2654
aVMalfoy
p2655
aVMalfoy
p2656
aVMalfoy
p2657
aVMalfoy
p2658
aVMalfoy
p2659
aVMalfoy
p2660
aVMalfoy
p2661
aVMalfoy
p2662
aVMalfoy
p2663
aVMalfoy
p2664
aVMalfoy
p2665
aVMalfoy
p2666
aVMalfoy
p2667
aVMalfoy
p2668
aVMalfoy
p2669
aVMalfoy
p2670
aVMalfoy
p2671
aVMalfoy
p2672
aVMalfoy
p2673
aVMalfoy
p2674
aVMalfoy
p2675
aVMalfoy
p2676
aVMalfoy
p2677
aVMalfoy
p2678
aVMalfoy
p2679
aVMalfoy
p2680
aVMalfoy
p2681
aVMalfoy
p2682
aVMalfoy
p2683
aVMalfoy
p2684
aVMalfoy
p2685
ag2685
aVMalfoy
p2686
aVMalfoy
p2687
aVMalfoy
p2688
aVMalfoy
p2689
aVMalfoy
p2690
aVMalfoy
p2691
aVMalfoy
p2692
aVMalfoy
p2693
aVMalfoy
p2694
aVMalfoy
p2695
ag2694
ag2695
aVMalfoy
p2696
aVMalfoy
p2697
ag2697
aVMalfoy
p2698
ag2698
aVDraco Malfoy
p2699
aVMalfoy
p2700
aVMalfoy certainly
p2701
aVMalfoy quickly
p2702
aVMalfoy and Crabbe
p2703
aVMalfoy quickly
p2704
aVMalfoy just
p2705
aVMalfoy and Ron
p2706
aVMalfoy quickly
p2707
asVBody-Bind
p2708
(lp2709
Vthe full Body-Bind
p2710
asVairily
p2711
(lp2712
VPercy airily
p2713
asVGalleons
p2714
(lp2715
g2714
aVmany Galleons
p2716
aVtwenty-one Galleons
p2717
aVseven gold Galleons
p2718
aVa Galleon
p2719
asVYeh
p2720
(lp2721
g2720
aVYeh
p2722
aVYeh
p2723
aVYeh
p2724
aVYeh
p2725
aVYeh
p2726
aVYeh
p2727
aVYeh
p2728
aVYeh'd
p2729
aVYeh'd
p2730
asVlast
p2731
(lp2732
Vlast Hagrid
p2733
aVthe last Quidditch
p2734
aVthe last Quidditch
p2735
aVall the last-minute Quidditch practice Wood
p2736
aVall the last-minute Quidditch practice Wood
p2737
asVParkinson
p2738
(lp2739
g2738
aVPansy Parkinson
p2740
asVloudly
p2741
(lp2742
VMr. Dursley loudly
p2743
aVMr. Dursley loudly
p2744
aVHagrid loudly
p2745
aVHarry loudly
p2746
aVRon loudly
p2747
aVHarry loudly
p2748
asVWe'd
p2749
(lp2750
g2749
aVWe'd
p2751
asVSlytherin
p2752
(lp2753
g2752
aVSlytherin
p2754
aVSlytherin
p2755
aVSlytherin
p2756
aVSlytherin
p2757
aVSlytherin
p2758
ag2758
aVa Slytherin
p2759
aVSlytherin
p2760
aVSlytherin
p2761
aVSlytherin
p2762
aVSlytherin
p2763
aVSlytherin
p2764
aVSlytherin
p2765
aVa Slytherin
p2766
aVSlytherin
p2767
aVSlytherin
p2768
aVSlytherin
p2769
aVSlytherin
p2770
aVSlytherin
p2771
aVSlytherin
p2772
aVSlytherin
p2773
aVSlytherin
p2774
ag2774
aVSlytherin
p2775
aVSlytherin
p2776
aVSlytherin
p2777
aVSlytherin
p2778
aVSlytherin
p2779
aVSlytherin
p2780
aVSlytherin
p2781
aVSlytherin
p2782
aVfour hundred and twenty-six and Slytherin
p2783
aVSlytherin
p2784
aVSlytherin
p2785
aVSlytherin
p2786
aVSlytherin House
p2787
aVSlytherin Captain Marcus Flint
p2788
aVSlytherin Seeker Terence Higgs
p2789
aVThe other Slytherins
p2790
aVthe Slytherins
p2791
aVthe Slytherins
p2792
aVthe Slytherins
p2793
aVSlytherins
p2794
aVThe Slytherins
p2795
aVthe Slytherins
p2796
aVThe Slytherins
p2797
aVthe Slytherins
p2798
ag2791
ag2792
aVall the Slytherins
p2799
ag2795
asVCornelius
p2800
(lp2801
Vold Cornelius
p2802
asVHufflepuff
p2803
(lp2804
g2803
aVSlytherin and Hufflepuff
p2805
aVHufflepuff
p2806
aVHufflepuff
p2807
aVBetter Hufflepuff
p2808
aVHufflepuff
p2809
aVHufflepuff
p2810
aVHufflepuff
p2811
ag2811
aVHufflepuff
p2812
ag2812
aVHufflepuff
p2813
aVHufflepuff
p2814
aVHufflepuff too
p2815
aVThose patient Hufflepuffs
p2816
aVThose patient Hufflepuffs
p2817
aVHufflepuffs
p2818
aVthe Hufflepuffs
p2819
aVHufflepuffs
p2820
asVLily
p2821
(lp2822
g2821
aVLily this and Lily
p2823
aVcrash kill Lily
p2824
aVLily
p2825
aVLily and James Potter
p2826
aVLily and James...I
p2827
aVLily this and Lily
p2828
asVRemembrall
p2829
(lp2830
Va Remembrall
p2831
aVthe Remembrall
p2832
aVthe Remembrall
p2833
aVmy Remembrall
p2834
aVThe Remembrall
p2835
aVthe Remembrall
p2836
aVthe Remembrall back
p2837
asVquickly
p2838
(lp2839
VDudley quickly
p2840
aVDudley quickly
p2841
aVHagrid quickly
p2842
aVHarry quickly
p2843
aVHarry quickly
p2844
aVHarry quickly
p2845
aVMalfoy quickly
p2846
aVMalfoy quickly
p2847
aVHarry quickly
p2848
aVMalfoy quickly
p2849
aVHarry quickly
p2850
aVQuick
p2851
aVQuick
p2852
aVQuick
p2853
asVbreathlessly
p2854
(lp2855
VHarry breathlessly
p2856
asVDumbledore
p2857
(lp2858
VDumbledore
p2859
ag2859
aVDumbledore
p2860
aVDumbledore
p2861
aVDumbledore
p2862
aVDumbledore
p2863
aVDumbledore
p2864
aVDumbledore
p2865
aVDumbledore
p2866
aVDumbledore
p2867
aVDumbledore
p2868
aVDumbledore
p2869
aVDumbledore
p2870
aVDumbledore
p2871
aVDumbledore
p2872
aVDumbledore
p2873
aVDumbledore
p2874
aVDumbledore
p2875
aVDumbledore
p2876
aVDumbledore
p2877
aVDumbledore
p2878
aVDumbledore
p2879
aVDumbledore
p2880
aVDumbledore
p2881
aVDumbledore
p2882
aVDumbledore
p2883
aVDumbledore
p2884
aVDumbledore
p2885
aVDumbledore
p2886
aVDumbledore
p2887
aVDumbledore
p2888
aVDumbledore
p2889
aVDumbledore
p2890
aVDumbledore
p2891
aVDumbledore
p2892
aVDumbledore
p2893
aVDumbledore
p2894
aVDumbledore
p2895
aVDumbledore
p2896
aVDumbledore
p2897
aVDumbledore
p2898
aVDumbledore
p2899
aVDumbledore
p2900
aVDumbledore
p2901
ag2901
aVDumbledore
p2902
aVDumbledore
p2903
aVDumbledore
p2904
aVDumbledore
p2905
aVDumbledore
p2906
aVDumbledore
p2907
aVDumbledore
p2908
ag2908
aVDumbledore
p2909
aVDumbledore
p2910
aVAlbus Dumbledore
p2911
aVDumbledore
p2912
aVDumbledore
p2913
aVDumbledore
p2914
aVDumbledore
p2915
aVDumbledore
p2916
aVDumbledore
p2917
aVDumbledore
p2918
aVDumbledore
p2919
aVDumbledore
p2920
aVDumbledore
p2921
aVDumbledore
p2922
aVDumbledore
p2923
aVinto Dumbledore
p2924
aVDumbledore
p2925
aVDumbledore
p2926
aVDumbledore
p2927
aVDumbledore
p2928
aVDumbledore
p2929
aVDumbledore
p2930
aVDumbledore
p2931
aVDumbledore
p2932
aVDumbledore
p2933
aVDumbledore
p2934
aVDumbledore
p2935
aVDumbledore
p2936
aVDumbledore
p2937
aVProfessor Dumbledore
p2938
aVProfessor Dumbledore
p2939
aVProfessor Dumbledore
p2940
aVProfessor Dumbledore
p2941
aVProfessor Dumbledore
p2942
aVDumbledore
p2943
aVDumbledore
p2944
aVDumbledore
p2945
aVDumbledore
p2946
aVDumbledore
p2947
aVDumbledore
p2948
aVAlbus Dumbledore
p2949
aVDumbledore
p2950
aVDumbledore
p2951
aVDumbledore
p2952
aVDumbledore
p2953
aVDumbledore
p2954
aVDumbledore
p2955
aVDumbledore
p2956
aVDumbledore
p2957
aVDumbledore
p2958
aVProfessor Dumbledore
p2959
aVDumbledore
p2960
aVDumbledore
p2961
aVDumbledore
p2962
aVDumbledore
p2963
aVDumbledore
p2964
aVProfessor Dumbledore
p2965
aVthough in her opinion Professor Dumbledore
p2966
aVDumbledore
p2967
aVDumbledore
p2968
aVDumbledore
p2969
aVDumbledore
p2970
aVDumbledore
p2971
aVDumbledore
p2972
aVDumbledore
p2973
aVDumbledore
p2974
aVDumbledore
p2975
aVDumbledore
p2976
aVDumbledore here
p2977
aVDumbledore firmly
p2978
aVDumbledore finally
p2979
aVDumbledore quietly
p2980
aVDumbledore quietly
p2981
aVDumbledore now
p2982
aVAlbus Dumbled
p2983
asVDragon
p2984
(lp2985
g2984
aVDragon Species
p2986
aVDragons
p2987
aVDragon Species
p2988
asVNight
p2989
(lp2990
VBonfire Night
p2991
aVG'night
p2992
aVBy nightfall Dudley
p2993
asVForce
p2994
(lp2995
Vhis Anti-Dark Force
p2996
aVThe Dark Forces
p2997
asVtimidly
p2998
(lp2999
VHermione timidly
p3000
asVMiss
p3001
(lp3002
VMiss Granger
p3003
aVMiss Granger
p3004
aVMiss Granger
p3005
aVYour friend Miss Granger accidentally
p3006
aVMr. Ronald Weasley and Miss Granger
p3007
asVFluffy
p3008
(lp3009
g3008
asVAgrippa
p3010
(lp3011
g3010
aVAgrippa
p3012
aVAgrippa or Ptolemy
p3013
aVAgrippa or Ptolemy
p3014
asVBetter
p3015
(lp3016
g3015
aVBetter
p3017
aVBetter Hufflepuff
p3018
asVForge
p3019
(lp3020
VGred and Forge
p3021
asVWood
p3022
(lp3023
g3022
aVWood
p3024
aVWood
p3025
aVWood
p3026
aVWood
p3027
aVWood
p3028
aVWood
p3029
aVWood
p3030
aVWood
p3031
aVWood
p3032
aVWood
p3033
aVWood
p3034
aVWood
p3035
aVWood
p3036
aVWood
p3037
ag3037
aVWood
p3038
aVWood
p3039
aVWood
p3040
aVWood
p3041
aVWood
p3042
aVWood
p3043
aVWood
p3044
aVWood
p3045
aVWood
p3046
aVWood
p3047
aVWood
p3048
aVWood
p3049
aVWood
p3050
aVWood
p3051
aVWood
p3052
aVWood
p3053
aVWood
p3054
aVWood
p3055
aVWood
p3056
aVhis and Wood
p3057
aVWood
p3058
aVWood
p3059
ag3059
aVWood
p3060
aVWood
p3061
aVWood
p3062
aVWood
p3063
ag3060
ag3061
ag3062
ag3063
aVWood
p3064
aVWood
p3065
aVWood
p3066
aVWood
p3067
aVWood
p3068
aVWood happily
p3069
aVWoodcroft
p3070
asVBludgers
p3071
(lp3072
Vthe Bludgers
p3073
aVthe Bludgers
p3074
aVthe Bludgers
p3075
aVthe Bludgers
p3076
aVthe Bludgers
p3077
aVthe Bludgers
p3078
aVthe Bludgers
p3079
aVBludgers
p3080
aVChaser Pucey ducks two Bludgers
p3081
aVthe Bludgers away
p3082
aVthe Bludgers ever
p3083
aVa Bludger
p3084
aVa second Bludger
p3085
aVa speeding Bludger
p3086
aVa Bludger
p3087
aVanother Bludger
p3088
aVanother Bludger
p3089
aVa Bludger
p3090
aVa Bludger
p3091
aVthe struggling Bludger back
p3092
aVhe beat the Bludger furiously
p3093
asVDead
p3094
(lp3095
g3094
ag3094
asVNimbus
p3096
(lp3097
Vthe new Nimbus
p3098
aVa Nimbus
p3099
aVA Nimbus
p3100
aVa Nimbus
p3101
aVthe Nimbus
p3102
aVA Nimbus
p3103
aVthe Nimbus
p3104
aVNimbus
p3105
aVThe Nimbus
p3106
ag3105
aVThe Nimbus
p3107
aVNimbus
p3108
ag3108
aVa Nimbus
p3109
aVyour new Nimbus Two Thousand
p3110
aVhis Nimbus Two Thousand
p3111
aVhis Nimbus Two Thousand
p3112
aVhis Nimbus Two Thousand back
p3113
aVhis Nimbus Two Thousand
p3114
asVSnape
p3115
(lp3116
VSnape
p3117
aVSnape
p3118
aVSnape
p3119
aVSnape
p3120
aVSnape
p3121
aVSnape
p3122
aVSnape
p3123
aVSnape
p3124
aVSnape
p3125
aVSnape
p3126
aVSnape
p3127
aVSnape
p3128
aVSnape
p3129
aVSnape
p3130
aVSnape
p3131
aVSnape
p3132
aVSnape
p3133
aVSnape
p3134
aVSnape
p3135
aVSnape
p3136
aVSnape
p3137
aVSnape
p3138
aVSnape
p3139
aVSnape
p3140
aVSnape
p3141
aVSnape
p3142
aVSnape
p3143
ag3142
ag3143
aVSnape
p3144
aVif Snape
p3145
aVSnape
p3146
aVSnape
p3147
aVSnape
p3148
aVSnape
p3149
aVSnape
p3150
aVSnape
p3151
aVSnape
p3152
aVSnape
p3153
aVSnape
p3154
aVSnape
p3155
ag3154
ag3155
aVSnape
p3156
aVSnape
p3157
aVSnape
p3158
aVSnape
p3159
aVSnape
p3160
aVSnape
p3161
aVSnape
p3162
aVSnape
p3163
aVSnape
p3164
aVSnape
p3165
aVSnape
p3166
ag3162
ag3163
ag3164
ag3165
ag3166
aVSnape
p3167
aVSnape
p3168
aVSnape
p3169
aVSnape
p3170
aVSnape
p3171
aVSnape
p3172
aVSnape
p3173
aVMalfoy and Snape
p3174
aVSnape
p3175
ag3175
aVSnape
p3176
aVFilch and Snape
p3177
aVFilch and Snape
p3178
aVSnape
p3179
aVSnape
p3180
aVSnape
p3181
aVSnape
p3182
aVSnape
p3183
aVSnape
p3184
aVSnape
p3185
aVSnape
p3186
aVSnape
p3187
aVSnape
p3188
aVSnape
p3189
aVSnape
p3190
aVSnape
p3191
aVSnape
p3192
aVSnape
p3193
aVSnape
p3194
aVSnape
p3195
aVSnape
p3196
aVSnape
p3197
aVSnape
p3198
aVSnape
p3199
aVSnape
p3200
aVSnape
p3201
aVSnape
p3202
aVSnape
p3203
aVSnape
p3204
aVSnape
p3205
aVSnape
p3206
aVSnape
p3207
aVSnape
p3208
aVSnape
p3209
aVSnape
p3210
aVSnape
p3211
aVSnape
p3212
aVSnape
p3213
aVSnape
p3214
aVSnape
p3215
aVSnape
p3216
aVSnape
p3217
aVSnape
p3218
aVSnape
p3219
aVSnape
p3220
aVSnape
p3221
ag3220
ag3221
aVSnape
p3222
aVSnape
p3223
aVSnape
p3224
aVSnape
p3225
aVSnape
p3226
aVSnape
p3227
aVSnape
p3228
aVeither Snape
p3229
aVSnape
p3230
aVSnape
p3231
aVSnape
p3232
aVSnape
p3233
aVSnape
p3234
aVfor Snape
p3235
aVSnape
p3236
aVSnape
p3237
aVSnape
p3238
aVSnape
p3239
aVSnape
p3240
aVSnape
p3241
aVSnape
p3242
aVSnape
p3243
aVSnape
p3244
aVSnape
p3245
aVSnape
p3246
aVSnape
p3247
aVSnape
p3248
aVSnape
p3249
aVSnape
p3250
aVSnape
p3251
aVSnape
p3252
aVSnape
p3253
aVSnape
p3254
aVSnape
p3255
aVSnape
p3256
aVSnape
p3257
aVyou and Snape
p3258
aVSnape
p3259
aVSnape
p3260
aVsomething Snape
p3261
aVSnape
p3262
aVSnape
p3263
aVSnape and Filch
p3264
aVSnape silkily
p3265
aVSnape just
p3266
asVwantin
p3267
(lp3268
g3267
asVTransfiguration
p3269
(lp3270
g3269
aVTransfiguration
p3271
aVTransfiguration
p3272
asVRavenclaw
p3273
(lp3274
g3273
aVRavenclaw
p3275
aVRavenclaw
p3276
aVwise old Ravenclaw
p3277
aVwise old Ravenclaw
p3278
aVa Ravenclaw
p3279
aVRavenclaw
p3280
aVRavenclaw
p3281
aVRavenclaw
p3282
aVRavenclaw too
p3283
aVseveral Ravenclaws
p3284
aVRavenclaws
p3285
asVneedin
p3286
(lp3287
g3286
asVWell...Voldemort
p3288
(lp3289
g3288
asVbook
p3290
(lp3291
Vthat book Malfoy
p3292
asVFlint
p3293
(lp3294
VMarcus Flint
p3295
aVFlint
p3296
aVSlytherin Captain Marcus Flint
p3297
aVFlint
p3298
aVFlint
p3299
aVMarcus Flint
p3300
aVMarcus Flint
p3301
aVMarcus Flint
p3302
aVFlint
p3303
aVFlint
p3304
aVFlint
p3305
aVMarcus Flint
p3306
aVFlint
p3307
aVFlint nearly
p3308
asVcasually
p3309
(lp3310
VRon casually
p3311
aVHagrid casually
p3312
aVQuirrell casually
p3313
asVAunt
p3314
(lp3315
VAunt Petunia and Dudley
p3316
aVAunt Petunia and Dudley
p3317
aVAunt Petunia and Dudley
p3318
aVAunt Petunia and Dudley
p3319
aVAunt Petunia frantically
p3320
aVHis Aunt Petunia
p3321
ag153
aVAunt Petunia
p3322
aVAunt Petunia
p3323
aVAunt Petunia
p3324
aVAunt Petunia
p3325
aVAunt Petunia
p3326
aVAunt Petunia
p3327
aVAunt Petunia
p3328
aVAunt Petunia
p3329
aVAunt Petunia
p3330
ag154
ag156
ag158
ag160
ag2179
ag162
aVof fruitcake Aunt Petunia
p3331
ag165
ag167
ag169
ag171
ag173
ag175
aVAunt Petunia often
p3332
aVAunt Petunia slowly
p3333
aVAunt Petunia and Dudley
p3334
aVAunt Petunia dully
p3335
ag2180
ag2181
aVAunt Petunia often
p3336
aVAunt Petunia often
p3337
ag2210
ag2213
ag1176
asVBott
p3338
(lp3339
VBettie Bott
p3340
aVBertie Bott
p3341
aVBettie Bott
p3342
aVBettie Bott
p3343
asVPiers
p3344
(lp3345
g3344
aVDudley and Piers
p3346
aVDudley and Piers
p3347
aVDudley and Piers
p3348
aVDudley and Piers
p3349
aVPiers
p3350
aVPiers
p3351
aVPiers
p3352
aVPiers
p3353
aVPiers and Dudley
p3354
aVPiers and Dudley
p3355
asVLady
p3356
(lp3357
Vthe Fat Lady
p3358
aVthe Fat Lady
p3359
aVThe Fat Lady
p3360
aVthe Fat Lady
p3361
aVthe Fat Lady
p3362
aVthe Fat Lady
p3363
aVthe Fat Lady
p3364
aVthe Fat Lady
p3365
aVthe Fat Lady
p3366
aVthe Fat Lady
p3367
asVLondon
p3368
(lp3369
Vthe London
p3370
aVLondon
p3371
ag3371
aVget up ter London
p3372
aVLondon
p3373
aVLondon
p3374
aVall this in London
p3375
aVLondon
p3376
aVLondon
p3377
aVLondon
p3378
aVof London
p3379
aVfor London
p3380
aVLondon
p3381
aVLondon...I
p3382
asVreasonably
p3383
(lp3384
VRon reasonably
p3385
asVLittle
p3386
(lp3387
g3386
aVLittle Whinging
p3388
aVLittle Whinging
p3389
aVpoor little Harry
p3390
asVQuirrell
p3391
(lp3392
VProfessor Quirrell
p3393
aVProfessor Quirrell
p3394
aVProfessor Quirrell
p3395
aVProfessor Quirrell
p3396
aVQuirrell
p3397
aVProfessor Quirrell
p3398
aVProfessor Quirrell
p3399
aVProfessor Quirrell
p3400
aVQuirrell
p3401
aVQuirrell
p3402
aVQuirrell
p3403
aVQuirrell
p3404
ag3401
ag3402
ag3403
ag3404
aVProfessor Quirrell
p3405
aVQuirrell
p3406
aVQuirrell
p3407
ag3406
ag3407
aVQuirrell
p3408
aVQuirrell
p3409
aVQuirrell
p3410
aVQuirrell
p3411
aVQuirrell
p3412
aVQuirrell
p3413
aVQuirrell
p3414
aVQuirrell
p3415
aVQuirrell
p3416
aVQuirrell
p3417
aVQuirrell
p3418
aVProfessor Quirrell
p3419
aVQuirrell
p3420
aVQuirrell
p3421
ag3421
aVQuirrell
p3422
aVQuirrell
p3423
aVQuirrell
p3424
aVQuirrell
p3425
aVQuirrell
p3426
ag3423
ag3424
ag3425
ag3426
aVQuirrell
p3427
aVQuirrell
p3428
aVQuirrell
p3429
aVQuirrell
p3430
aVQuirrell
p3431
aVQuirrell
p3432
aVQuirrell
p3433
aVQuirrell
p3434
aVQuirrell
p3435
aVQuirrell
p3436
aVQuirrell
p3437
aVQuirrell
p3438
aVQuirrell
p3439
aVQuirrell
p3440
aVQuirrell
p3441
aVQuirrell
p3442
aVQuirrell
p3443
aVQuirrell
p3444
aVQuirrell
p3445
aVQuirrell
p3446
aVQuirrell
p3447
aVQuirrell
p3448
aVQuirrell
p3449
aVQuirrell
p3450
aVQuirrell
p3451
ag3450
ag3451
aVQuirrell
p3452
aVQuirrell
p3453
aVQuirrell
p3454
aVQuirrell
p3455
aVQuirrell
p3456
aVQuirrell
p3457
ag3455
ag3456
ag3457
aVQuirrell
p3458
aVQuirrell
p3459
aVQuirrell
p3460
aVQuirrell
p3461
aVQuirrell
p3462
aVQuirrell
p3463
aVQuirrell
p3464
aVQuirrell
p3465
aVQuirrell
p3466
aVQuirrell
p3467
aVQuirrell
p3468
aVQuirrell
p3469
aVQuirrell
p3470
aVQuirrell
p3471
aVQuirrell
p3472
aVQuirrell
p3473
aVQuirrell
p3474
aVQuirrell
p3475
aVProfessor Quirrell
p3476
aVQuirrell
p3477
aVQuirrell
p3478
aVQuirrell
p3479
aVQuirrell
p3480
aVQuirrell
p3481
aVQuirrell
p3482
aVQuirrell
p3483
aVQuirrell coolly
p3484
aVQuirrell casually
p3485
aVQuirrell impatiently
p3486
asVMars
p3487
(lp3488
g3487
aVMars
p3489
aVMars
p3490
aVmany Mars Bars
p3491
aVMars Bars
p3492
aVmany Mars Bars
p3493
aVMars Bars
p3494
asVLongbottom
p3495
(lp3496
VNeville Longbottom
p3497
aVfor Longbottom
p3498
aVstupid thing Longbottom
p3499
aVLongbottom
p3500
aVLongbottom
p3501
aVLongbottom
p3502
aVMr. Longbottom
p3503
aVMr. Neville Longbottom
p3504
aVLongbottom here
p3505
asVLee
p3506
(lp3507
g3506
aVLee
p3508
ag3508
aVLee Jordan
p3509
aVLee Jordan
p3510
aVLee Jordan
p3511
aVLee Jordan
p3512
aVLee Jordan
p3513
aVLee Jordan
p3514
aVLee Jordan
p3515
aVLee Jordan finally
p3516
aVLee Jordan
p3517
aVLee Jordan
p3518
aVLee Jordan
p3519
aVLee Jordan
p3520
aVLee Jordan
p3521
aVJordan
p3522
aVJordan
p3523
aVLee Jordan
p3524
aVLee Jordan
p3525
aVLee Jordan finally
p3526
asVSeverus
p3527
(lp3528
g3527
aVB-b-but Severus
p3529
aVSeverus
p3530
aVSeverus
p3531
aVSeverus Snape
p3532
asVHeaven
p3533
(lp3534
g3533
asVNorbert
p3535
(lp3536
Vhim Norbert
p3537
aVNorbert
p3538
aVNorbert
p3539
aVNorbert
p3540
aVNorbert
p3541
aVhim feed Norbert
p3542
aVus and Norbert
p3543
aVNorbert
p3544
aVif Norbert
p3545
aVNorbert
p3546
aVNorbert
p3547
aVNorbert
p3548
aVNorbert
p3549
aVNorbert
p3550
aVNorbert
p3551
aVNorbert
p3552
aVNorbert
p3553
aVNorbert
p3554
aVNorbert
p3555
aVNorbert
p3556
ag3554
ag3555
ag3556
aVNorbert
p3557
aVNorbert
p3558
aVNorbert
p3559
aVNorbert safely
p3560
aVNorbert safely
p3561
aVHarry safely
p3562
aVNorbert safely
p3563
aVNorbert safely
p3564
asVBill
p3565
(lp3566
g3565
aVBill
p3567
aVBill
p3568
aVBill
p3569
aVBill and Charlie
p3570
asVshakily
p3571
(lp3572
VNeville shakily
p3573
asVcoldly
p3574
(lp3575
VProfessor McGonagall coldly
p3576
aVHarry coldly
p3577
aVFilch coldly
p3578
asVYou'd
p3579
(lp3580
g3579
aVYou'd
p3581
aVYou'd
p3582
asVRon
p3583
(lp3584
g3583
aVRon
p3585
aVRon
p3586
aVRon
p3587
aVRon
p3588
aVRon
p3589
aVRon
p3590
aVRon
p3591
aVRon
p3592
aVRon
p3593
aVRon
p3594
aVRon
p3595
aVRon
p3596
aVRon
p3597
aVRon
p3598
aVRon
p3599
aVRon
p3600
aVRon
p3601
aVRon
p3602
aVRon
p3603
aVRon
p3604
aVRon
p3605
aVRon
p3606
aVRon
p3607
aVRon
p3608
aVRon
p3609
aVRon
p3610
aVRon
p3611
aVRon
p3612
aVRon
p3613
aVRon
p3614
aVRon
p3615
aVRon
p3616
aVRon
p3617
aVRon
p3618
aVone Ron
p3619
aVRon
p3620
aVRon
p3621
aVRon
p3622
aVRon
p3623
aVRon
p3624
aVRon
p3625
aVRon
p3626
aVRon
p3627
aVRon
p3628
aVRon
p3629
aVRon
p3630
aVRon
p3631
aVRon
p3632
aVRon
p3633
aVRon
p3634
aVRon
p3635
aVhim or Ron
p3636
aVRon
p3637
aVRon
p3638
aVRon
p3639
aVRon
p3640
aVRon
p3641
aVRon
p3642
aVHe and Ron
p3643
aVRon
p3644
aVnerves and Ron
p3645
aVRon
p3646
aVRon
p3647
aVRon
p3648
ag3648
aVRon
p3649
aVRon
p3650
aVRon
p3651
aVRon
p3652
aVRon
p3653
aVRon
p3654
aVRon
p3655
aVRon
p3656
aVRon
p3657
aVRon
p3658
ag3658
aVRon
p3659
aVRon
p3660
aVRon
p3661
aVRon
p3662
aVRon
p3663
aVRon
p3664
aVRon
p3665
aVRon
p3666
aVRon
p3667
aVRon
p3668
aVRon
p3669
aVRon
p3670
aVRon
p3671
aVRon
p3672
aVRon
p3673
aVRon
p3674
aVRon
p3675
aVRon
p3676
aVRon
p3677
ag3674
ag3675
ag3676
ag3677
aVRon
p3678
aVRon
p3679
aVRon
p3680
aVRon
p3681
aVRon
p3682
aVRon
p3683
aVRon
p3684
aVRon
p3685
aVRon
p3686
aVRon
p3687
aVRon
p3688
aVRon
p3689
aVRon
p3690
aVRon
p3691
aVRon
p3692
aVRon
p3693
aVRon
p3694
aVRon
p3695
aVRon
p3696
aVRon
p3697
aVRon
p3698
aVRon
p3699
aVRon
p3700
aVRon
p3701
aVRon
p3702
aVRon
p3703
aVRon
p3704
aVRon
p3705
aVRon
p3706
aVRon
p3707
aVRon
p3708
aVRon
p3709
aVRon
p3710
aVRon
p3711
aVRon
p3712
aVRon
p3713
aVRon
p3714
aVRon
p3715
aVRon
p3716
aVRon
p3717
aVRon
p3718
aVRon
p3719
aVRon
p3720
aVRon
p3721
aVRon
p3722
ag3722
aVRon
p3723
aVRon
p3724
aVRon
p3725
aVRon
p3726
aVRon
p3727
aVRon
p3728
aVRon
p3729
aVRon
p3730
aVRon
p3731
aVits nose and Ron
p3732
aVRon
p3733
aVRon
p3734
aVRon
p3735
aVRon
p3736
aVRon
p3737
aVRon
p3738
aVRon
p3739
aVRon
p3740
aVRon
p3741
aVRon
p3742
aVRon
p3743
aVRon
p3744
aVRon
p3745
aVRon
p3746
aVRon
p3747
aVRon
p3748
aVRon
p3749
aVRon
p3750
aVRon
p3751
aVRon
p3752
aVRon
p3753
aVRon
p3754
aVRon
p3755
aVRon
p3756
aVRon
p3757
aVRon
p3758
ag3758
aVRon
p3759
ag3759
aVRon
p3760
aVRon
p3761
aVRon
p3762
aVRon
p3763
ag3763
aVRon
p3764
aVRon
p3765
aVRon
p3766
aVRon
p3767
aVRon
p3768
aVRon
p3769
aVhis shoulders and Ron
p3770
aVRon
p3771
aVRon
p3772
aVRon
p3773
aVRon
p3774
aVRon
p3775
aVRon
p3776
aVRon
p3777
aVRon
p3778
aVRon
p3779
aVRon
p3780
aVRon
p3781
aVRon
p3782
aVRon
p3783
aVRon
p3784
aVRon
p3785
aVRon
p3786
aVRon
p3787
aVRon
p3788
aVRon
p3789
aVRon
p3790
aVRon
p3791
aVRon
p3792
aVRon
p3793
aVRon
p3794
aVRon
p3795
aVat Ron
p3796
aVRon
p3797
aVRon
p3798
aVRon
p3799
aVRon
p3800
aVRon
p3801
aVRon
p3802
aVRon
p3803
aVRon
p3804
aVRon
p3805
aVRon
p3806
aVRon
p3807
aVRon
p3808
aVRon
p3809
aVRon
p3810
aVRon
p3811
aVRon
p3812
aVRon
p3813
aVRon
p3814
aVRon
p3815
aVRon
p3816
aVRon
p3817
aVRon
p3818
aVRon
p3819
aVRon
p3820
aVRon
p3821
aVRon
p3822
aVRon
p3823
aVRon
p3824
aVRon
p3825
aVRon
p3826
aVRon
p3827
aVRon
p3828
aVRon
p3829
aVRon
p3830
aVRon
p3831
aVRon
p3832
aVRon
p3833
aVRon
p3834
aVRon
p3835
aVRon
p3836
aVRon
p3837
aVRon
p3838
aVRon
p3839
ag3839
aVRon
p3840
aVRon
p3841
aVRon
p3842
aVRon
p3843
aVRon
p3844
aVRon
p3845
aVRon
p3846
aVRon
p3847
aVRon
p3848
aVRon
p3849
aVRon
p3850
aVRon
p3851
aVRon
p3852
aVRon
p3853
aVRon
p3854
aVHarry and Ron
p3855
aVRon
p3856
aVRon
p3857
aVHarry and Ron
p3858
aVRon
p3859
aVRon
p3860
aVHarry and Ron
p3861
aVRon
p3862
aVRon
p3863
aVRon
p3864
aVRon
p3865
aVRon
p3866
aVRon
p3867
aVRon
p3868
aVRon
p3869
aVRon
p3870
aVRon
p3871
aVRon
p3872
aVRon
p3873
aVat Ron
p3874
aVRon
p3875
aVRon
p3876
aVRon
p3877
aVRon
p3878
aVRon
p3879
aVRon
p3880
aVRon
p3881
aVRon
p3882
aVRon
p3883
aVRon
p3884
aVRon
p3885
aVRon
p3886
aVRon
p3887
aVRon
p3888
aVRon
p3889
aVRon
p3890
aVRon
p3891
aVRon
p3892
aVRon
p3893
aVRon
p3894
aVRon
p3895
aVRon
p3896
aVRon
p3897
aVRon
p3898
aVRon
p3899
aVRon
p3900
aVRon
p3901
aVRon
p3902
aVRon
p3903
aVRon
p3904
ag3902
ag3903
ag3904
aVRon
p3905
aVRon
p3906
aVRon
p3907
aVRon
p3908
aVRon
p3909
aVRon
p3910
aVRon
p3911
aVRon
p3912
aVRon
p3913
aVRon
p3914
aVRon
p3915
aVRon
p3916
aVRon
p3917
aVRon
p3918
aVRon eagerly
p3919
aVRon Weasley
p3920
aVRon furiously
p3921
aVRon exactly
p3922
aVRon finally
p3923
aVRon nervously
p3924
aVRon and Harry
p3925
aVRon and Harry
p3926
aVRon bitterly
p3927
aVRon and Harry
p3928
aVRon sleepily
p3929
aVRon suddenly
p3930
aVRon and Harry
p3931
aVHarry and Ron barely
p3932
aVRon impressively
p3933
aVRon and Hermione
p3934
aVRon and Hermione
p3935
aVRon sleepily
p3936
aVRon and Hermione
p3937
aVRon and Hermione
p3938
aVRon and Hermione
p3939
aVRon only
p3940
aVRon and Hermione
p3941
aVRon and Hermione
p3942
aVRon finally
p3943
aVRon and Hermione
p3944
aVRon and Hermione
p3945
aVickle Ronnie
p3946
aVRonan
p3947
aVRonan
p3948
aVRonan
p3949
aVRonan
p3950
aVRonan
p3951
aVRonan
p3952
aVRonan
p3953
ag3953
aVRonan
p3954
aVRonan and Bane
p3955
aVRonan and Bane
p3956
aVickle Ronniekins
p3957
aVRonald Weasley
p3958
ag3007
aVRonan
p3959
aVRonan
p3960
aVRonan
p3961
aVRonan
p3962
ag3947
ag3949
ag3951
ag3953
ag3954
ag3955
asVCaptain
p3963
(lp3964
VSlytherin Captain Marcus Flint
p3965
aVa Thinking Cap
p3966
asVquietly
p3967
(lp3968
VHagrid quietly
p3969
aVHarry quietly
p3970
aVHarry quietly
p3971
aVDumbledore quietly
p3972
aVDumbledore quietly
p3973
aVQuirrell quietly
p3974
asVArts
p3975
(lp3976
Vthe D-D-Dark Arts
p3977
aVthe Dark Arts
p3978
aVthe Dark Arts
p3979
aVthe Dark Arts
p3980
aVthe Dark Arts
p3981
aVthe Dark Arts
p3982
aVsome anti-Dark Arts
p3983
aVthe Dark Arts
p3984
aVthe Dark Arts.
p3985
aVthe Dark Arts.
p3986
asVSnare...what
p3987
(lp3988
g3987
asVFlitwick
p3989
(lp3990
VProfessor Flitwick
p3991
aVProfessor Flitwick
p3992
aVFlitwick
p3993
aVFlitwick
p3994
aVProfessor Flitwick
p3995
aVof Flitwick
p3996
aVProfessor Flitwick
p3997
aVProfessor Flitwick
p3998
aVProfessor Flitwick
p3999
aVProfessor Flitwick
p4000
aVProfessor Flitwick
p4001
aVProfessor Flitwick
p4002
aVProfessor McGonagall and Professor Flitwick
p4003
aVProfessor Flitwick
p4004
aVa joke Professor Flitwick
p4005
aVProfessor Flitwick
p4006
aVProfessor Flitwick
p4007
aVProfessor Flitwick
p4008
aVProfessor Flitwick
p4009
aVFlitwick
p4010
aVFlitwick
p4011
aVFlitwick
p4012
asVFirenze
p4013
(lp4014
g4013
aVFirenze
p4015
aVFirenze
p4016
aVFirenze
p4017
aVsure Firenze
p4018
aVFirenze
p4019
aVFirenze
p4020
aVFirenze
p4021
aVFirenze
p4022
aVFirenze
p4023
aVFirenze
p4024
aVFirenze
p4025
aVFirenze
p4026
aVFirenze
p4027
aVFirenze
p4028
aVFirenze
p4029
aVFirenze
p4030
aVFirenze suddenly
p4031
aVFirenze suddenly
p4032
asVproudly
p4033
(lp4034
VRon proudly
p4035
asVway
p4036
(lp4037
Vthe perfect way Malfoy
p4038
aVthe way Hagrid
p4039
aVthe way Harry
p4040
aVthe way Harry
p4041
asVHags
p4042
(lp4043
g4042
asVHarry
p4044
(lp4045
g4044
aVHarry
p4046
aVHarry
p4047
ag4046
ag4047
aVHarry
p4048
aVHarry
p4049
aVHarry
p4050
aVHarry
p4051
aVHarry
p4052
aVHarry
p4053
aVHarry
p4054
aVHarry
p4055
aVHarry
p4056
aVHarry
p4057
aVHarry
p4058
aVHarry
p4059
aVHarry
p4060
aVHarry
p4061
aVHarry
p4062
aVHarry
p4063
aVHarry
p4064
aVHarry
p4065
aVHarry
p4066
aVHarry
p4067
aVHarry
p4068
aVHarry
p4069
ag4062
ag4063
ag4064
ag4065
ag4066
ag4067
ag4068
ag4069
aVHarry
p4070
aVHarry
p4071
aVHarry
p4072
aVHarry
p4073
aVHarry
p4074
ag4071
ag4072
ag4073
ag4074
aVHarry
p4075
aVHarry
p4076
aVHarry
p4077
aVHarry
p4078
aVHarry
p4079
aVHarry
p4080
aVHarry
p4081
aVHarry
p4082
aVHarry
p4083
aVHarry
p4084
aVHarry
p4085
aVHarry
p4086
aVHarry
p4087
aVHarry
p4088
aVHarry
p4089
aVHarry
p4090
aVHarry
p4091
aVHarry
p4092
aVHarry
p4093
aVthem Harry
p4094
aVHarry
p4095
aVHarry
p4096
aVHarry
p4097
aVHarry
p4098
ag4089
ag4090
ag4091
ag4092
ag4093
aVthem Harry
p4099
ag4095
ag4096
ag4097
ag4098
aVHarry
p4100
aVHarry
p4101
aVHarry
p4102
aVHarry
p4103
aVHarry
p4104
aVHarry
p4105
aVhim another one and Harry
p4106
aVHarry
p4107
ag4103
ag4104
ag4105
aVhim another one and Harry
p4108
ag4107
aVHarry
p4109
aVHarry
p4110
aVHarry
p4111
aVHarry
p4112
ag4109
ag4110
ag4111
ag4112
aVHarry
p4113
aVHarry
p4114
aVHarry
p4115
aVHarry
p4116
aVHarry
p4117
aVHarry
p4118
aVHarry
p4119
aVHarry
p4120
aVHarry
p4121
aVHarry
p4122
aVHarry
p4123
aVHarry
p4124
aVHarry
p4125
aVHarry
p4126
aVHarry
p4127
aVHarry
p4128
aVHarry
p4129
aVHarry
p4130
aVHarry
p4131
aVHarry
p4132
aVHarry
p4133
aVHarry
p4134
aVHarry
p4135
aVHarry
p4136
aVHarry
p4137
aVHarry
p4138
ag4135
ag4136
ag4137
ag4138
aVHarry
p4139
aVHarry
p4140
aVHarry
p4141
aVHarry
p4142
aVHarry
p4143
aVHarry
p4144
aVHarry
p4145
aVHarry
p4146
aVHarry
p4147
aVHarry
p4148
aVHarry
p4149
aVHarry
p4150
aVHarry
p4151
aVboth Harry
p4152
aVHarry
p4153
aVHarry
p4154
aVHarry
p4155
aVHarry
p4156
aVHarry
p4157
aVHarry
p4158
aVHarry
p4159
aVHarry
p4160
aVHarry
p4161
aVHarry
p4162
aVHarry
p4163
aVHarry
p4164
aVHarry
p4165
aVHarry
p4166
aVHarry
p4167
aVHarry
p4168
aVHarry
p4169
aVHarry
p4170
aVHarry
p4171
aVHarry
p4172
aVHarry
p4173
aVHarry
p4174
aVHarry
p4175
aVHarry
p4176
aVHarry
p4177
aVHarry
p4178
aVHarry
p4179
aVHarry
p4180
aVHarry
p4181
aVHarry
p4182
aVHarry
p4183
aVHarry
p4184
aVHarry
p4185
aVHarry
p4186
aVHarry
p4187
aVHarry
p4188
aVlight and Harry
p4189
aVHarry
p4190
aVHarry
p4191
aVHarry
p4192
aVHarry
p4193
aVHarry
p4194
aVHarry
p4195
aVHarry
p4196
aVHarry
p4197
aVHarry
p4198
aVHarry
p4199
aVHarry
p4200
aVHarry
p4201
aVHarry
p4202
aVHarry
p4203
aVHarry
p4204
aVHarry
p4205
aVHarry
p4206
aVHarry
p4207
aVHarry
p4208
aVHarry
p4209
aVHarry
p4210
aVHarry
p4211
aVin Harry
p4212
aVHarry
p4213
aVHarry
p4214
aVHarry
p4215
aVHarry
p4216
aVHarry
p4217
aVHarry
p4218
aVHarry
p4219
aVHarry
p4220
aVHarry
p4221
aVHarry
p4222
aVHarry
p4223
aVHarry
p4224
aVHarry
p4225
aVHarry
p4226
aVHarry
p4227
aVHarry
p4228
aVHarry
p4229
aVHarry
p4230
aVHarry
p4231
aVHarry
p4232
aVhis leg so Harry
p4233
aVHarry
p4234
aVHarry
p4235
aVHarry
p4236
aVHarry
p4237
aVHarry
p4238
aVHarry
p4239
aVHarry
p4240
aVHarry
p4241
aVHarry
p4242
aVHarry
p4243
aVHarry
p4244
aVHarry
p4245
aVHarry
p4246
aVHarry
p4247
aVHarry
p4248
aVHarry
p4249
aVHarry
p4250
aVHarry
p4251
aVHarry
p4252
aVHarry
p4253
aVall Harry
p4254
aVHarry
p4255
aVHarry
p4256
aVHarry
p4257
aVHarry
p4258
ag4257
ag4258
aVHarry
p4259
aVHarry
p4260
aVHarry
p4261
aVHarry
p4262
aVHarry
p4263
aVHarry
p4264
aVHarry
p4265
aVHarry
p4266
aVHarry
p4267
aVHarry
p4268
aVHarry
p4269
aVHarry
p4270
aVHarry
p4271
aVHarry
p4272
aVHarry
p4273
aVHarry
p4274
aVHarry
p4275
aVHarry
p4276
aVHarry
p4277
aVabout Harry
p4278
aVHarry
p4279
aVHarry
p4280
aVHarry
p4281
aVHarry
p4282
aVhe and Harry
p4283
aVHarry
p4284
aVHarry
p4285
aVHarry
p4286
aVHarry
p4287
ag4285
ag4286
ag4287
aVHarry
p4288
aVHarry
p4289
aVAll Harry
p4290
aVHarry
p4291
aVHarry
p4292
aVHarry
p4293
aVHarry
p4294
aVHarry
p4295
aVHarry
p4296
aVHarry
p4297
aVHarry
p4298
aVHarry
p4299
aVHarry
p4300
aVHarry
p4301
aVHarry
p4302
aVHarry
p4303
aVHarry
p4304
aVHarry
p4305
aVHarry
p4306
aVHarry
p4307
aVHarry
p4308
aVHarry
p4309
aVHarry
p4310
aVHarry
p4311
aVHarry
p4312
aVHarry
p4313
aVHarry
p4314
aVHarry
p4315
aVHarry
p4316
aVHarry
p4317
aVHarry
p4318
aVHarry
p4319
aVHarry
p4320
aVHarry
p4321
aVHarry
p4322
aVHarry
p4323
ag4322
ag4323
aVHarry
p4324
aVHarry
p4325
aVHarry
p4326
aVhe and Harry
p4327
aVHarry
p4328
aVHarry
p4329
aVHarry
p4330
aVHarry
p4331
aVHarry
p4332
aVHarry
p4333
aVHarry
p4334
aVHarry
p4335
aVHarry
p4336
aVHarry
p4337
aVHarry
p4338
aVHarry
p4339
aVHarry
p4340
aVHarry
p4341
aVHarry
p4342
aVHarry
p4343
aVHarry
p4344
aVHarry
p4345
aVHarry
p4346
aVHarry
p4347
aVHarry
p4348
aVHarry
p4349
aVHarry
p4350
aVHarry
p4351
aVHarry
p4352
aVHarry
p4353
aVHarry
p4354
aVHarry
p4355
aVHarry
p4356
aVHarry
p4357
aVHarry
p4358
aVHarry
p4359
aVHarry
p4360
aVHarry
p4361
aVHarry
p4362
aVHarry
p4363
aVHarry
p4364
aVHarry
p4365
aVHarry
p4366
aVHarry
p4367
aVthough Harry
p4368
aVHarry
p4369
aVHarry
p4370
ag4365
ag4366
ag4367
aVthough Harry
p4371
ag4369
ag4370
aVHarry
p4372
aVHarry
p4373
aVHarry
p4374
aVHarry
p4375
aVHarry
p4376
aVHarry
p4377
aVHarry
p4378
aVHarry
p4379
aVHarry
p4380
aVHarry
p4381
aVHarry
p4382
ag4380
ag4381
ag4382
aVHarry
p4383
aVHarry
p4384
aVHarry
p4385
aVHarry
p4386
aVHarry
p4387
aVHarry
p4388
aVHarry
p4389
aVHarry
p4390
aVHarry
p4391
aVHarry
p4392
aVHarry
p4393
aVHarry
p4394
aVHarry
p4395
aVHarry
p4396
aVHarry
p4397
aVHarry
p4398
aVHarry
p4399
aVHarry
p4400
aVHarry
p4401
aVHarry
p4402
aVHarry
p4403
aVHarry
p4404
aVHarry
p4405
aVHarry
p4406
aVHarry
p4407
aVHarry
p4408
aVHarry
p4409
aVHarry
p4410
aVHarry
p4411
aVHarry
p4412
aVHarry
p4413
aVHarry
p4414
aVHarry
p4415
aVHarry
p4416
aVHarry
p4417
aVHarry
p4418
aVall Harry
p4419
aVHarry
p4420
aVHarry
p4421
aVHarry
p4422
aVHarry
p4423
aVHarry
p4424
aVHarry
p4425
aVHarry
p4426
aVHarry
p4427
aVHarry
p4428
aVHarry
p4429
aVHarry
p4430
aVHarry
p4431
aVHarry
p4432
aVHarry
p4433
aVHarry
p4434
aVHarry
p4435
aVHarry
p4436
aVHarry
p4437
aVHarry
p4438
aVHarry
p4439
aVHarry
p4440
aVHarry
p4441
aVHarry
p4442
aVHarry
p4443
aVHarry
p4444
aVHarry
p4445
aVHarry
p4446
aVHarry
p4447
aVBoth Harry
p4448
aVHarry
p4449
aVHarry
p4450
aVHarry
p4451
aVHarry
p4452
aVHarry
p4453
aVHarry
p4454
aVHarry
p4455
aVHarry
p4456
aVHarry
p4457
aVHarry
p4458
aVHarry
p4459
aVHarry
p4460
aVHarry
p4461
aVHarry
p4462
ag4461
ag4462
aVHarry
p4463
aVHarry
p4464
aVHarry
p4465
ag4463
ag4464
ag4465
aVHarry
p4466
aVHarry
p4467
aVHarry
p4468
aVHarry
p4469
aVHarry
p4470
aVHarry
p4471
aVHarry
p4472
aVHarry
p4473
aVHarry
p4474
aVHarry
p4475
aVHarry
p4476
aVHarry
p4477
aVHarry
p4478
aVHarry
p4479
aVHarry
p4480
aVHarry
p4481
aVHarry
p4482
aVHarry
p4483
ag4480
ag4481
ag4482
ag4483
aVHarry
p4484
aVHarry
p4485
aVHarry
p4486
aVHarry
p4487
aVHarry
p4488
aVHarry
p4489
aVHarry
p4490
aVHarry
p4491
aVHarry
p4492
aVHarry
p4493
aVHarry
p4494
aVHarry
p4495
aVHarry
p4496
aVHarry
p4497
aVHarry
p4498
aVHarry
p4499
aVHarry
p4500
aVHarry
p4501
aVHarry
p4502
aVHarry
p4503
aVHarry
p4504
aVHarry
p4505
aVHarry
p4506
aVHarry
p4507
aVHarry
p4508
aVHarry
p4509
aVHarry
p4510
aVHarry
p4511
aVHarry
p4512
aVHarry
p4513
aVHarry
p4514
aVHarry
p4515
aVHarry
p4516
ag4514
ag4515
ag4516
aVHarry
p4517
aVHarry
p4518
ag4517
ag4518
aVHarry
p4519
ag4519
aVHarry
p4520
aVHarry
p4521
aVHarry
p4522
aVHarry
p4523
aVHarry
p4524
aVHarry
p4525
aVHarry
p4526
aVHarry
p4527
aVHarry
p4528
aVHarry
p4529
aVHarry
p4530
aVHarry
p4531
aVHarry
p4532
aVHarry
p4533
aVHarry
p4534
aVHarry
p4535
aVHarry
p4536
aVHarry
p4537
aVHarry
p4538
aVHarry
p4539
aVHarry
p4540
aVHarry
p4541
aVHarry
p4542
aVHarry
p4543
aVHarry
p4544
aVHarry
p4545
aVHarry
p4546
aVHarry
p4547
aVHarry
p4548
aVHarry
p4549
aVHarry
p4550
aVHarry
p4551
aVHarry
p4552
aVHarry
p4553
aVHarry
p4554
ag4552
ag4553
ag4554
aVHarry
p4555
aVHarry
p4556
aVHarry
p4557
aVHarry
p4558
aVHarry
p4559
aVHarry
p4560
aVHarry
p4561
aVHarry
p4562
aVHarry
p4563
aVHarry
p4564
aVHarry
p4565
aVHarry
p4566
aVHarry
p4567
aVHarry
p4568
aVHarry
p4569
aVHarry
p4570
aVHarry
p4571
ag4570
ag4571
aVHarry
p4572
aVHarry
p4573
aVHarry
p4574
aVHarry
p4575
aVHarry
p4576
aVHarry
p4577
aVHarry
p4578
aVHarry
p4579
aVHarry
p4580
aVHarry
p4581
aVHarry
p4582
aVHarry
p4583
aVHarry
p4584
aVHarry
p4585
aVHarry
p4586
aVHarry
p4587
aVHarry
p4588
aVHarry
p4589
aVHarry
p4590
aVHarry
p4591
aVHarry
p4592
aVevery turn Harry
p4593
aVHarry
p4594
ag4592
aVevery turn Harry
p4595
ag4594
aVHarry
p4596
aVHarry
p4597
aVHarry
p4598
aVHarry
p4599
aVHarry
p4600
aVHarry
p4601
aVHarry
p4602
aVHarry
p4603
aVHarry
p4604
aVHarry
p4605
aVHarry
p4606
aVHarry
p4607
aVHarry
p4608
aVHarry
p4609
aVHarry
p4610
ag4607
ag4608
ag4609
ag4610
aVHarry
p4611
aVHarry
p4612
aVthough Harry
p4613
aVHarry
p4614
aVHarry
p4615
aVHarry
p4616
aVHarry
p4617
aVHarry
p4618
aVHarry
p4619
aVHarry
p4620
aVHarry
p4621
aVHarry
p4622
aVHarry
p4623
aVHarry
p4624
aVHarry
p4625
aVHarry
p4626
aVHarry
p4627
aVHarry
p4628
aVHarry
p4629
aVHarry
p4630
aVHarry
p4631
aVHarry
p4632
ag4629
ag4630
ag4631
ag4632
aVHarry
p4633
aVHarry
p4634
aVHarry
p4635
aVHarry
p4636
aVHarry
p4637
aVHarry
p4638
aVHarry
p4639
aVHarry
p4640
aVHarry
p4641
aVHarry
p4642
aVHarry
p4643
aVhe and Harry
p4644
aVHarry
p4645
aVHarry
p4646
aVHarry
p4647
aVHarry
p4648
aVHarry
p4649
aVHarry
p4650
aVHarry
p4651
aVHarry
p4652
aVHarry
p4653
aVHarry
p4654
aVHarry
p4655
aVHarry
p4656
aVHarry
p4657
aVHarry
p4658
aVHarry
p4659
ag4659
aVHarry
p4660
aVHarry
p4661
aVHarry
p4662
aVHarry
p4663
aVHarry
p4664
aVHarry
p4665
aVHarry
p4666
aVHarry
p4667
aVHarry
p4668
aVHarry
p4669
aVHarry
p4670
aVHarry
p4671
aVHarry
p4672
aVHarry
p4673
ag4672
ag4673
aVHarry
p4674
aVHarry
p4675
aVHarry
p4676
aVHarry
p4677
aVHarry
p4678
aVHarry
p4679
aVHarry
p4680
aVHarry
p4681
aVHarry
p4682
aVHarry
p4683
aVHarry
p4684
aVHarry
p4685
aVHarry
p4686
aVHarry
p4687
aVHarry
p4688
aVHarry
p4689
aVHarry
p4690
aVHarry
p4691
aVHarry
p4692
aVHarry
p4693
aVHarry
p4694
aVHarry
p4695
aVHarry
p4696
aVHarry
p4697
aVHarry
p4698
aVHarry
p4699
aVHarry
p4700
aVHarry
p4701
aVHarry
p4702
aVHarry
p4703
aVHarry
p4704
aVHarry
p4705
aVHarry
p4706
aVHarry
p4707
aVHarry
p4708
aVHarry
p4709
aVHarry
p4710
aVHarry
p4711
aVHarry
p4712
aVHarry
p4713
aVHarry
p4714
aVHarry
p4715
aVHarry
p4716
aVHarry
p4717
aVHarry
p4718
aVHarry
p4719
ag4716
ag4717
ag4718
ag4719
aVHarry
p4720
aVHarry
p4721
aVHarry
p4722
ag4721
ag4722
aVHarry
p4723
aVHarry
p4724
aVat Harry
p4725
aVHarry
p4726
aVHarry
p4727
aVat Harry
p4728
aVHarry
p4729
aVHarry
p4730
aVHarry
p4731
ag4731
aVHarry
p4732
aVHarry
p4733
aVHarry
p4734
aVHarry
p4735
aVHarry
p4736
aVHarry
p4737
aVHarry
p4738
aVHarry
p4739
aVat Harry
p4740
aVHarry
p4741
aVHarry
p4742
aVHarry
p4743
aVHarry
p4744
aVat Harry
p4745
ag4741
ag4742
ag4743
ag4744
aVHarry
p4746
aVHarry
p4747
aVHarry
p4748
aVHarry
p4749
aVHarry
p4750
ag4750
aVHarry
p4751
aVHarry
p4752
aVHarry
p4753
ag4752
ag4753
aVHarry
p4754
aVHarry
p4755
aVHarry
p4756
aVHarry
p4757
aVHarry
p4758
aVHarry
p4759
aVHarry
p4760
aVHarry
p4761
ag4758
ag4759
ag4760
ag4761
aVHarry
p4762
aVHarry
p4763
aVHarry
p4764
aVHarry
p4765
aVHarry
p4766
aVHarry
p4767
aVHarry
p4768
aVHarry
p4769
aVHarry
p4770
aVHarry
p4771
aVHarry
p4772
aVHarry
p4773
aVHarry
p4774
aVHarry
p4775
aVHarry
p4776
aVHarry
p4777
aVHarry
p4778
aVHarry
p4779
aVHarry
p4780
aVHarry
p4781
aVHarry
p4782
aVHarry
p4783
aVHarry
p4784
aVHarry
p4785
aVHarry
p4786
aVHarry
p4787
aVHarry
p4788
aVHarry
p4789
aVHarry
p4790
aVHarry
p4791
aVHarry
p4792
aVHarry
p4793
ag4788
ag4789
ag4790
ag4791
ag4792
ag4793
aVHarry
p4794
aVHarry
p4795
aVHarry
p4796
aVHarry
p4797
aVHarry
p4798
aVHarry
p4799
aVHarry
p4800
aVHarry
p4801
ag4795
ag4796
ag4797
ag4798
ag4799
ag4800
ag4801
aVHarry
p4802
aVHarry
p4803
aVHarry
p4804
aVHarry
p4805
aVHarry
p4806
aVHarry
p4807
aVHarry
p4808
aVHarry
p4809
aVHarry
p4810
aVHarry
p4811
aVHarry
p4812
aVHarry
p4813
aVHarry
p4814
aVHarry
p4815
aVHarry
p4816
aVHarry
p4817
aVHarry
p4818
aVHarry
p4819
aVHarry
p4820
aVHarry
p4821
aVHarry
p4822
aVHarry
p4823
aVHarry
p4824
aVHarry
p4825
aVHarry
p4826
aVHarry
p4827
aVHarry
p4828
aVHarry
p4829
aVHarry
p4830
aVHarry
p4831
aVHarry
p4832
aVHarry
p4833
aVHarry
p4834
aVHarry
p4835
aVHarry
p4836
ag4833
ag4834
ag4835
ag4836
aVHarry
p4837
aVHarry
p4838
aVHarry
p4839
aVHarry
p4840
aVHarry
p4841
aVHarry
p4842
aVHarry
p4843
aVHarry
p4844
aVHarry
p4845
aVHarry
p4846
aVHarry
p4847
aVHarry
p4848
aVHarry
p4849
aVHarry
p4850
aVHarry
p4851
aVHarry
p4852
aVHarry
p4853
aVHarry
p4854
aVHarry
p4855
aVHarry
p4856
aVHarry
p4857
aVHarry
p4858
aVHarry
p4859
aVHarry
p4860
aVHarry
p4861
aVHarry
p4862
aVHarry
p4863
aVHarry
p4864
aVHarry
p4865
aVHarry
p4866
aVHarry
p4867
aVHarry
p4868
aVHarry
p4869
aVHarry
p4870
aVHarry
p4871
aVHarry
p4872
aVHarry
p4873
aVHarry
p4874
aVHarry
p4875
aVHarry
p4876
aVHarry
p4877
aVHarry
p4878
aVHarry
p4879
aVHarry
p4880
aVHarry
p4881
aVHarry
p4882
aVHarry
p4883
aVHarry
p4884
aVHarry
p4885
aVHarry
p4886
aVHarry
p4887
aVHarry
p4888
aVHarry
p4889
aVHarry
p4890
aVHarry
p4891
aVHarry
p4892
aVHarry
p4893
aVHarry
p4894
aVHarry
p4895
ag4895
aVHarry
p4896
aVHarry
p4897
aVHarry
p4898
aVHarry
p4899
aVHarry
p4900
aVHarry
p4901
aVHarry
p4902
aVHarry
p4903
aVHarry
p4904
aVHarry
p4905
aVHarry
p4906
aVHarry
p4907
aVit and then Harry
p4908
aVit and then Harry
p4909
aVHarry
p4910
aVHarry
p4911
aVHarry
p4912
aVHarry
p4913
aVHarry
p4914
aVHarry
p4915
aVHarry
p4916
aVHarry
p4917
aVHarry
p4918
aVHarry
p4919
aVHarry
p4920
aVHarry
p4921
aVHarry
p4922
aVHarry
p4923
aVHarry
p4924
aVHarry
p4925
ag4923
ag4924
ag4925
aVHarry
p4926
aVHarry
p4927
aVHarry
p4928
aVHarry
p4929
aVHarry
p4930
aVHarry
p4931
ag4927
ag4928
ag4929
ag4930
ag4931
aVHarry
p4932
aVHarry
p4933
aVHarry
p4934
aVHarry
p4935
aVHarry
p4936
aVHarry
p4937
aVHarry
p4938
aVHarry
p4939
aVHarry
p4940
aVHarry
p4941
aVHarry
p4942
aVHarry
p4943
aVHarry
p4944
aVHarry
p4945
aVHarry
p4946
aVHarry
p4947
aVHarry
p4948
aVHarry
p4949
aVHarry
p4950
aVHarry
p4951
aVHarry
p4952
aVHarry
p4953
ag4953
aVHarry
p4954
aVHarry
p4955
aVHarry
p4956
aVHarry
p4957
aVHarry
p4958
aVHarry
p4959
aVHarry
p4960
aVHarry
p4961
ag4959
ag4960
ag4961
aVHarry
p4962
aVHarry
p4963
aVHarry
p4964
aVHarry
p4965
ag4962
ag4963
ag4964
ag4965
aVHarry
p4966
aVHarry
p4967
aVHarry
p4968
aVHarry
p4969
aVHarry
p4970
aVHarry
p4971
aVHarry
p4972
aVHarry
p4973
aVHarry
p4974
aVHarry
p4975
aVHarry
p4976
aVHarry
p4977
aVHarry
p4978
aVHarry
p4979
aVHarry
p4980
aVHarry
p4981
aVHarry
p4982
aVHarry
p4983
aVHarry
p4984
aVHarry
p4985
aVHarry
p4986
aVHarry
p4987
aVHarry
p4988
aVHarry
p4989
aVHarry
p4990
aVHarry
p4991
aVHarry
p4992
aVHarry
p4993
aVHarry
p4994
aVHarry
p4995
aVHarry
p4996
aVHarry
p4997
aVHarry
p4998
aVHarry
p4999
aVHarry
p5000
aVHarry
p5001
aVHarry
p5002
aVHarry
p5003
aVHarry
p5004
aVHarry
p5005
aVHarry
p5006
aVHarry
p5007
aVHarry
p5008
aVHarry
p5009
aVHarry
p5010
aVHarry
p5011
aVHarry
p5012
aVHarry
p5013
aVHarry
p5014
aVHarry
p5015
aVHarry
p5016
aVHarry
p5017
aVHarry
p5018
aVHarry
p5019
aVHarry
p5020
aVHarry
p5021
aVHarry
p5022
aVHarry
p5023
aVHarry
p5024
aVHarry
p5025
aVHarry
p5026
aVHarry
p5027
aVHarry
p5028
aVHarry
p5029
aVHarry
p5030
aVHarry
p5031
aVHarry
p5032
aVHarry
p5033
aVHarry
p5034
aVHarry
p5035
aVHarry
p5036
aVHarry
p5037
aVHarry
p5038
aVHarry
p5039
aVHarry
p5040
aVHarry
p5041
aVHarry
p5042
aVHarry
p5043
aVHarry
p5044
aVHarry
p5045
aVHarry
p5046
aVHarry
p5047
aVHarry
p5048
aVHarry
p5049
aVHarry
p5050
aVfor Harry
p5051
aVHarry
p5052
aVHarry
p5053
aVHarry
p5054
aVHarry
p5055
aVHarry
p5056
aVHarry
p5057
aVHarry
p5058
aVHarry
p5059
aVHarry
p5060
aVHarry
p5061
aVHarry
p5062
aVHarry
p5063
aVHarry
p5064
aVHarry
p5065
aVHarry
p5066
ag5065
ag5066
aVHarry
p5067
aVHarry
p5068
aVHarry
p5069
aVHarry
p5070
aVHarry
p5071
aVHarry
p5072
aVHarry
p5073
aVHarry
p5074
ag5073
ag5074
aVHarry
p5075
aVHarry
p5076
aVHarry
p5077
aVHarry
p5078
aVHarry
p5079
aVHarry
p5080
aVHarry
p5081
aVHarry
p5082
aVHarry
p5083
aVHarry
p5084
aVHarry
p5085
aVHarry
p5086
aVHarry
p5087
aVHarry
p5088
aVHarry
p5089
aVHarry
p5090
aVHarry
p5091
aVHarry
p5092
aVHarry
p5093
aVHarry
p5094
aVHarry
p5095
aVAll Harry
p5096
aVHarry
p5097
aVHarry
p5098
aVHarry
p5099
aVHarry
p5100
aVHarry
p5101
aVHarry
p5102
aVHarry
p5103
aVHarry
p5104
aVHarry
p5105
aVHarry
p5106
ag5104
ag5105
ag5106
aVHarry
p5107
aVHarry
p5108
aVHarry
p5109
aVHarry
p5110
ag5109
ag5110
aVHarry
p5111
aVHarry
p5112
aVHarry
p5113
aVHarry
p5114
aVHarry
p5115
aVHarry
p5116
aVHarry
p5117
aVHarry
p5118
aVHarry
p5119
aVHarry
p5120
aVHarry
p5121
aVHarry
p5122
aVHarry
p5123
aVHarry
p5124
aVHarry
p5125
aVHarry
p5126
aVHarry
p5127
aVHarry
p5128
aVHarry
p5129
aVHarry
p5130
aVHarry
p5131
aVHarry
p5132
aVHarry
p5133
aVHarry
p5134
aVHarry
p5135
aVHarry
p5136
aVHarry
p5137
aVHarry
p5138
aVHarry
p5139
aVHarry
p5140
aVHarry
p5141
aVHarry
p5142
aVHarry
p5143
aVHarry
p5144
aVHarry
p5145
aVHarry
p5146
aVHarry
p5147
aVHarry
p5148
aVHarry
p5149
aVHarry
p5150
aVHarry
p5151
aVHarry
p5152
aVHarry
p5153
aVHarry
p5154
aVHarry
p5155
aVHarry
p5156
aVHarry
p5157
aVHarry
p5158
aVHarry
p5159
aVHarry
p5160
aVHarry
p5161
aVHarry
p5162
aVHarry
p5163
aVHarry
p5164
aVHarry
p5165
aVHarry
p5166
aVeye and Harry
p5167
aVHarry
p5168
aVHarry
p5169
aVHarry
p5170
aVHarry
p5171
aVHarry
p5172
aVHarry
p5173
aVHarry
p5174
aVHarry
p5175
aVHarry
p5176
aVHarry
p5177
aVHarry
p5178
aVHarry
p5179
aVHarry often
p5180
aVodd Harry Potter
p5181
aVHarry and Dudley
p5182
aVHarry and Dudley promptly
p5183
aVHarry privately
p5184
aVHarry Potter not
p5185
aVHarry shortly
p5186
aVHarry away
p5187
aVHarry awkwardly
p5188
aVHarry only
p5189
aVyou really Harry Potter
p5190
aVHarry Potter
p5191
aVHarry Potter
p5192
aVHarry nervously
p5193
aVThe Harry Potter
p5194
aVHarry Potter
p5195
aVHarry quietly
p5196
aVHarry quietly
p5197
aVHarry sharply
p5198
aVHarry quickly
p5199
aVHarry suddenly
p5200
aVHarry then
p5201
aVHarry and Ron
p5202
aVHarry and Ron
p5203
aVHarry and Ron
p5204
aVHarry safely
p5205
aVHarry finally
p5206
aVHarry only
p5207
aVsomething Harry and Ron
p5208
aVHarry and Ron
p5209
aVHarry and Ron barely
p5210
aVHarry and Ron
p5211
aVHarry and Ron
p5212
aVHarry and Ron
p5213
aVHarry aside
p5214
aVHarry nearly
p5215
aVHarry and Ron
p5216
aVHarry and Ron
p5217
aVHarry and Ron
p5218
aVHarry and Ron
p5219
aVHarry loudly
p5220
aVHarry suddenly
p5221
aVHarry Potter
p5222
aVHarry Potter
p5223
aVthe famous Harry Potter
p5224
aVHarry flatly
p5225
aVHarry and Hermione
p5226
aVHarry Potter
p5227
aVHarry and Hermione
p5228
aVHarry Potter
p5229
aVHarry Potter
p5230
aVHarry suddenly
p5231
aVHarry and Ron
p5232
aVHarry frantically
p5233
aVHarry and Ron
p5234
aVHarry and Ron
p5235
aVHarry and Ron
p5236
aVHarry hardly
p5237
aVHarry and Hermione
p5238
aVHarry quickly
p5239
aVHarry and Hermione
p5240
aVHarry and Hermione
p5241
aVHarry and Hermione
p5242
aVHarry and Hermione
p5243
aVHarry Potter
p5244
aVHarry thoughtfully
p5245
aVHarry strongly
p5246
aVMr. Harry Potter
p5247
aVHarry Potter
p5248
aVHarry hardly
p5249
aVHarry hardly
p5250
ag5250
aVHarry...I
p5251
asVCauldron
p5252
(lp5253
Vthe Leaky Cauldron
p5254
aVthe Leaky Cauldron
p5255
aVthe Leaky Cauldron
p5256
aVThe Leaky Cauldron
p5257
aVthe Leaky Cauldron
p5258
aVthe Leaky Cauldron
p5259
aVthe Leaky Cauldron
p5260
aVthe Leaky Cauldron
p5261
aVthe Leaky Cauldron
p5262
aVthe Leaky Cauldron
p5263
aVthe Leaky Cauldron
p5264
aVthe Leaky Cauldron
p5265
aVCauldrons
p5266
asVSir
p5267
(lp5268
g5267
aVSir
p5269
aVSir
p5270
aVSir
p5271
aVSir
p5272
aVSir
p5273
aVSir
p5274
aVSir
p5275
aVSir Nicholas
p5276
aVme Sir Nicholas
p5277
aVSir Nicholas
p5278
aVSir Nicholas
p5279
aVme Sir Nicholas
p5280
aVSir Nicholas
p5281
asVDursley
p5282
(lp5283
VMr. and Mrs. Dursley
p5284
aVMr. Dursley
p5285
aVMr. Dursley
p5286
aVMr. Dursley
p5287
aVMr. Dursley
p5288
aVMrs. Dursley
p5289
aVMr. Dursley
p5290
aVMrs. Dursley
p5291
aVMr. Dursley
p5292
aVMr. Dursley
p5293
ag105
aVMr. Dursley
p5294
ag106
aVMrs. Dursley
p5295
aVMr. Dursley
p5296
aVMrs. Dursley
p5297
ag107
aVMr. Dursley
p5298
aVMr. Dursley
p5299
aVMrs. Dursley
p5300
aVMr. Dursley
p5301
aVMrs. Dursley
p5302
aVMr. Dursley
p5303
aVhim and Mrs. Dursley
p5304
aVMr. Dursley
p5305
aVMrs. Dursley
p5306
aVMr. Dursley
p5307
aVMrs. Dursley
p5308
aVMr. Dursley
p5309
aVhim and Mrs. Dursley
p5310
aVMr. Dursley
p5311
ag108
aVMrs. Dursley
p5312
aVMr. Dursley
p5313
aVDudley Dursley
p5314
aVDursley
p5315
aVDursley
p5316
aVDursley
p5317
aVDursley
p5318
aVMr. Dursley always
p5319
aVMr. Dursley loudly
p5320
aVThe Dursleys
p5321
aVThe Dursleys
p5322
aVThe Dursleys
p5323
aVThe Dursleys
p5324
aVThe Dursleys
p5325
aVthe Dursleys
p5326
aVthe Dursleys
p5327
aVthe Dursleys
p5328
aVthe Dursleys
p5329
aVthe Dursleys
p5330
aVThe Dursleys
p5331
aVthe Dursleys
p5332
aVthe Dursleys
p5333
aVthe Dursleys
p5334
aVthe Dursleys
p5335
aVthe Dursleys
p5336
aVthe Dursleys
p5337
aVthe Dursleys
p5338
aVthe Dursleys
p5339
aVthe Dursleys
p5340
aVThe Dursleys
p5341
aVthe Dursleys
p5342
aVthe Dursleys
p5343
aVthe Dursleys
p5344
aVthe Dursleys
p5345
aVThe Dursleys often
p5346
aVthe Dursleys usually
p5347
aVThe Dursleys often
p5348
aVThe Dursleys
p5349
aVThe Dursleys
p5350
aVThe Dursleys
p5351
aVthe Dursleys
p5352
aVthe Dursleys
p5353
aVthe Dursleys
p5354
aVThe Dursleys
p5355
ag5321
ag5322
aVthe Dursleys
p5356
aVthe Dursleys
p5357
aVthe Dursleys
p5358
aVthe Dursleys
p5359
ag5325
ag5326
ag5328
ag5330
aVthem Dursleys
p5360
ag5333
ag5335
ag5337
ag5339
ag5341
ag5343
ag5345
aVthe Dursleys almost
p5361
asVgrumpily
p5362
(lp5363
VHagrid grumpily
p5364
asVFancy
p5365
(lp5366
g5365
asVmysteriously
p5367
(lp5368
VHagrid mysteriously
p5369
asVagain
p5370
(lp5371
VTufty again
p5372
aVRon again
p5373
aVHagrid again
p5374
aVErised again
p5375
aVDumbledore again
p5376
aVHagrid again
p5377
aVVoldemort again
p5378
asVreally
p5379
(lp5380
VHarry really
p5381
aVGeorge Weasley really
p5382
aVHe'd really
p5383
aVGryffindor really
p5384
aVyou really Harry Potter
p5385
asVGreat
p5386
(lp5387
g5386
aVMy Great Uncle Algie
p5388
aVmy Great Auntie Enid
p5389
aVof the Great Hall
p5390
aVthe Great Hall
p5391
aVthe Great Hall
p5392
aVthe Great Hall
p5393
aVthe Great Hall
p5394
aVthe Great Hall
p5395
aVthe Great Hall
p5396
aVGreat Wizards
p5397
aVGreat Wizards
p5398
aVthe Great Hall
p5399
aVthe Great Hall
p5400
asVWednesday
p5401
(lp5402
Vevery Wednesday
p5403
aVevery Wednesday
p5404
aVone dead last Wednesday
p5405
asccopy_reg
_reconstructor
p5406
(cnetworkx.classes.graph
Graph
p5407
cdill._dill
_load_type
p5408
(S'ObjectType'
p5409
tp5410
Rp5411
Ntp5412
Rp5413
(dp5414
S'node'
p5415
(dp5416
VSpore
p5417
(dp5418
S'length'
p5419
I1
ssVJim
p5420
(dp5421
g5419
I2
ssg4
(dp5422
g5419
I1
ssVStation
p5423
(dp5424
g5419
I1
ssVRevenges
p5425
(dp5426
g5419
I1
ssVIsle
p5427
(dp5428
g5419
I1
ssg6
(dp5429
g5419
I16
ssg25
(dp5430
g5419
I4
ssVBrown
p5431
(dp5432
g5419
I2
ssVcertainly
p5433
(dp5434
g5419
I4
ssVAngelina
p5435
(dp5436
g5419
I4
ssVMugwump
p5437
(dp5438
g5419
I1
ssVpompously
p5439
(dp5440
g5419
I1
ssg48
(dp5441
g5419
I1
ssVEvil
p5442
(dp5443
g5419
I2
ssVfinally
p5444
(dp5445
g5419
I6
ssVPassersby
p5446
(dp5447
g5419
I1
ssVPrewetts
p5448
(dp5449
g5419
I1
ssVTibbles
p5450
(dp5451
g5419
I1
ssVMacDougal
p5452
(dp5453
g5419
I1
ssVvery
p5454
(dp5455
g5419
I5
ssVVoldemort
p5456
(dp5457
g5419
I34
ssVWands
p5458
(dp5459
g5419
I4
ssVI'd
p5460
(dp5461
g5419
I29
ssVMcGuffin
p5462
(dp5463
g5419
I1
ssVMoon
p5464
(dp5465
g5419
I1
ssg1069
(dp5466
g5419
I2
ssVGrindelwald
p5467
(dp5468
g5419
I2
ssVWeasleys
p5469
(dp5470
g5419
I14
ssVDanger
p5471
(dp5472
g5419
I1
ssVMidnight
p5473
(dp5474
g5419
I2
ssVaccidentally
p5475
(dp5476
g5419
I1
ssg2003
(dp5477
g5419
I1
ssVCourse
p5478
(dp5479
g5419
I3
ssVDefense
p5480
(dp5481
g5419
I5
ssVPetunia
p5482
(dp5483
g5419
I65
ssVGeorge
p5484
(dp5485
g5419
I29
ssg213
(dp5486
g5419
I1
ssVMerlin
p5487
(dp5488
g5419
I2
ssVKent
p5489
(dp5490
g5419
I2
ssVHoward
p5491
(dp5492
g5419
I1
ssg216
(dp5493
g5419
I37
ssg253
(dp5494
g5419
I5
ssVBulstrode
p5495
(dp5496
g5419
I1
ssVsecond
p5497
(dp5498
g5419
I3
ssVcrisply
p5499
(dp5500
g5419
I1
ssVOooooh
p5501
(dp5502
g5419
I1
ssVTotalus
p5503
(dp5504
g5419
I1
ssVGoyle
p5505
(dp5506
g5419
I26
ssg309
(dp5507
g5419
I1
ssg311
(dp5508
g5419
I2
ssVOllivanders
p5509
(dp5510
g5419
I4
ssVAlgie
p5511
(dp5512
g5419
I3
ssVNotable
p5513
(dp5514
g5419
I2
ssVRonnie
p5515
(dp5516
g5419
I1
ssg3019
(dp5517
g5419
I1
ssVBye-bye
p5518
(dp5519
g5419
I1
ssVPut-Outer
p5520
(dp5521
g5419
I5
ssVGalleon
p5522
(dp5523
g5419
I1
ssVBleaaargh
p5524
(dp5525
g5419
I1
ssVNeville
p5526
(dp5527
g5419
I122
ssVHut-on-the-Rock
p5528
(dp5529
g5419
I1
ssVHiggs
p5530
(dp5531
g5419
I4
ssg427
(dp5532
g5419
I25
ssVProfessor
p5533
(dp5534
g5419
I193
ssVnever
p5535
(dp5536
g5419
I10
ssVhere
p5537
(dp5538
g5419
I3
ssVHorror-struck
p5539
(dp5540
g5419
I1
ssg2104
(dp5541
g5419
I3
ssVBludger
p5542
(dp5543
g5419
I10
ssVHagrid
p5544
(dp5545
g5419
I376
ssVDean
p5546
(dp5547
g5419
I13
ssVimpatiently
p5548
(dp5549
g5419
I1
ssVTweak
p5550
(dp5551
g5419
I1
ssVTuesday
p5552
(dp5553
g5419
I2
ssg1309
(dp5554
g5419
I1
ssVSally-Anne
p5555
(dp5556
g5419
I1
ssVPercy
p5557
(dp5558
g5419
I38
ssVGriphook
p5559
(dp5560
g5419
I15
ssVBaruffio
p5561
(dp5562
g5419
I1
ssVPoltergeist
p5563
(dp5564
g5419
I2
ssVWonder
p5565
(dp5566
g5419
I3
ssg957
(dp5567
g5419
I13
ssg972
(dp5568
g5419
I6
ssVParvati
p5569
(dp5570
g5419
I4
ssVGrunnion
p5571
(dp5572
g5419
I1
ssg979
(dp5573
g5419
I16
ssVHarvey
p5574
(dp5575
g5419
I2
ssVBoot
p5576
(dp5577
g5419
I1
ssg997
(dp5578
g5419
I1
ssVSpinner
p5579
(dp5580
g5419
I1
ssVNick
p5581
(dp5582
g5419
I5
ssVBook
p5583
(dp5584
g5419
I1
ssVprivately
p5585
(dp5586
g5419
I1
ssg1008
(dp5587
g5419
I2
ssVTom
p5588
(dp5589
g5419
I1
ssVCokeworth
p5590
(dp5591
g5419
I1
ssg1107
(dp5592
g5419
I1
ssVWarlock
p5593
(dp5594
g5419
I1
ssVN-nothing
p5595
(dp5596
g5419
I1
ssVExpress
p5597
(dp5598
g5419
I3
ssg2412
(dp5599
g5419
I8
ssg1109
(dp5600
g5419
I2
ssVVernon
p5601
(dp5602
g5419
I123
ssVbitterly
p5603
(dp5604
g5419
I1
ssVErised
p5605
(dp5606
g5419
I5
ssVFluffy...never...but
p5607
(dp5608
g5419
I1
ssg1184
(dp5609
g5419
I7
ssVgrimly
p5610
(dp5611
g5419
I2
ssg2487
(dp5612
g5419
I27
ssg1214
(dp5613
g5419
I7
ssVP-P-Petunia
p5614
(dp5615
g5419
I1
ssg1220
(dp5616
g5419
I20
ssVsharply
p5617
(dp5618
g5419
I2
ssVTime
p5619
(dp5620
g5419
I2
ssg5365
(dp5621
g5419
I1
ssVSeamus
p5622
(dp5623
g5419
I21
ssVEmporium
p5624
(dp5625
g5419
I2
ssVTonight
p5626
(dp5627
g5419
I1
ssVSeptember
p5628
(dp5629
g5419
I3
ssVfiercely
p5630
(dp5631
g5419
I1
ssVFirsties
p5632
(dp5633
g5419
I2
ssVTroll
p5634
(dp5635
g5419
I1
ssVQuidditch
p5636
(dp5637
g5419
I34
ssVWizard
p5638
(dp5639
g5419
I3
ssVMimsy
p5640
(dp5641
g5419
I1
ssVMr.
p5642
(dp5643
g5419
I99
ssVWizards
p5644
(dp5645
g5419
I4
ssVLord
p5646
(dp5647
g5419
I4
ssVChristmas
p5648
(dp5649
g5419
I18
ssVfirmly
p5650
(dp5651
g5419
I1
ssVFigg
p5652
(dp5653
g5419
I11
ssVGryffindor
p5654
(dp5655
g5419
I59
ssVCentury
p5656
(dp5657
g5419
I3
ssVHullo
p5658
(dp5659
g5419
I2
ssVJell-O
p5660
(dp5661
g5419
I1
ssVMillicent
p5662
(dp5663
g5419
I1
ssVMimblewimble
p5664
(dp5665
g5419
I1
ssVJordan
p5666
(dp5667
g5419
I10
ssVHope
p5668
(dp5669
g5419
I1
ssVFall
p5670
(dp5671
g5419
I1
ssVinstead
p5672
(dp5673
g5419
I2
ssVgrudgingly
p5674
(dp5675
g5419
I1
ssg1455
(dp5676
g5419
I6
ssVDon
p5677
(dp5678
g5419
I8
ssVWhinging
p5679
(dp5680
g5419
I1
ssg5251
(dp5681
g5419
I1
ssVHermione
p5682
(dp5683
g5419
I281
ssVGulpin
p5684
(dp5685
g5419
I1
ssVLisa
p5686
(dp5687
g5419
I1
ssVHooch
p5688
(dp5689
g5419
I12
ssVScamander
p5690
(dp5691
g5419
I1
ssVBinns
p5692
(dp5693
g5419
I5
ssVBroomsticks
p5694
(dp5695
g5419
I1
ssVWeather
p5696
(dp5697
g5419
I1
ssVAargh
p5698
(dp5699
g5419
I1
ssVBrazil
p5700
(dp5701
g5419
I3
ssVSlytherins
p5702
(dp5703
g5419
I13
ssVPtolemy
p5704
(dp5705
g5419
I1
ssVcoolly
p5706
(dp5707
g5419
I2
ssVindeed
p5708
(dp5709
g5419
I1
ssVDudley
p5710
(dp5711
g5419
I165
ssVForces
p5712
(dp5713
g5419
I1
ssVsleepily
p5714
(dp5715
g5419
I3
ssVstill
p5716
(dp5717
g5419
I1
ssVViridian
p5718
(dp5719
g5419
I1
ssVPucey
p5720
(dp5721
g5419
I4
ssVAbbott
p5722
(dp5723
g5419
I1
ssg1822
(dp5724
g5419
I111
ssVactually
p5725
(dp5726
g5419
I1
ssg1879
(dp5727
g5419
I1
ssg3267
(dp5728
g5419
I1
ssVthen
p5729
(dp5730
g5419
I4
ssVOddment
p5731
(dp5732
g5419
I1
ssVgood
p5733
(dp5734
g5419
I4
ssg1881
(dp5735
g5419
I1
ssVCap
p5736
(dp5737
g5419
I1
ssVThomas
p5738
(dp5739
g5419
I4
ssVDumbled
p5740
(dp5741
g5419
I1
ssVGordon
p5742
(dp5743
g5419
I1
ssVMother
p5744
(dp5745
g5419
I1
ssVnot
p5746
(dp5747
g5419
I7
ssVErm
p5748
(dp5749
g5419
I1
ssVTower
p5750
(dp5751
g5419
I1
ssVnow
p5752
(dp5753
g5419
I8
ssg1883
(dp5754
g5419
I6
ssg3383
(dp5755
g5419
I1
ssVPotter
p5756
(dp5757
g5419
I95
ssVFoul
p5758
(dp5759
g5419
I1
ssVfrantically
p5760
(dp5761
g5419
I2
ssVHeadmistress
p5762
(dp5763
g5419
I1
ssg1993
(dp5764
g5419
I1
ssVGoshawk
p5765
(dp5766
g5419
I1
ssg2001
(dp5767
g5419
I1
ssVComet
p5768
(dp5769
g5419
I1
ssVI...do
p5770
(dp5771
g5419
I1
ssVNitwit
p5772
(dp5773
g5419
I1
ssVLeviosa
p5774
(dp5775
g5419
I3
ssVreally
p5776
(dp5777
g5419
I5
ssVTrimble
p5778
(dp5779
g5419
I1
ssVGodric
p5780
(dp5781
g5419
I1
ssVDoor
p5782
(dp5783
g5419
I1
ssVScabbers
p5784
(dp5785
g5419
I11
ssg2018
(dp5786
g5419
I1
ssVBrocklehurst
p5787
(dp5788
g5419
I1
ssVWelcome
p5789
(dp5790
g5419
I5
ssVTut
p5791
(dp5792
g5419
I2
ssg2020
(dp5793
g5419
I69
ssVseriously
p5794
(dp5795
g5419
I1
ssVRidgebacks
p5796
(dp5797
g5419
I1
ssVClass
p5798
(dp5799
g5419
I1
ssVCountercurses
p5800
(dp5801
g5419
I1
ssVStone
p5802
(dp5803
g5419
I59
ssVYou-Know-Who
p5804
(dp5805
g5419
I22
ssVpromptly
p5806
(dp5807
g5419
I1
ssVDudleykins
p5808
(dp5809
g5419
I2
ssVEgg
p5810
(dp5811
g5419
I1
ssVGringotts
p5812
(dp5813
g5419
I23
ssVGrade
p5814
(dp5815
g5419
I1
ssVuncertainly
p5816
(dp5817
g5419
I1
ssg2138
(dp5818
g5419
I6
ssVNicolas
p5819
(dp5820
g5419
I14
ssg2146
(dp5821
g5419
I1
ssVShhhh
p5822
(dp5823
g5419
I1
ssg2149
(dp5824
g5419
I3
ssg2589
(dp5825
g5419
I6
ssVBlack
p5826
(dp5827
g5419
I2
ssg2159
(dp5828
g5419
I1
ssVthoughtfully
p5829
(dp5830
g5419
I2
ssg2729
(dp5831
g5419
I2
ssVsadly
p5832
(dp5833
g5419
I1
ssg2161
(dp5834
g5419
I3
ssVOrder
p5835
(dp5836
g5419
I1
ssVTurpin
p5837
(dp5838
g5419
I1
ssVMorgana
p5839
(dp5840
g5419
I1
ssVtoo
p5841
(dp5842
g5419
I3
ssVS-s-sorry
p5843
(dp5844
g5419
I1
ssVwildly
p5845
(dp5846
g5419
I1
ssVDesert
p5847
(dp5848
g5419
I1
ssg2220
(dp5849
g5419
I5
ssVgleefully
p5850
(dp5851
g5419
I1
ssVJustin
p5852
(dp5853
g5419
I1
ssVhappily
p5854
(dp5855
g5419
I1
ssVexactly
p5856
(dp5857
g5419
I2
ssg2227
(dp5858
g5419
I3
ssVWarlocks
p5859
(dp5860
g5419
I1
ssVPasties
p5861
(dp5862
g5419
I1
ssg30
(dp5863
g5419
I2
ssVNovember
p5864
(dp5865
g5419
I1
ssVSurrey
p5866
(dp5867
g5419
I1
ssVDudley....He
p5868
(dp5869
g5419
I1
ssVCode
p5870
(dp5871
g5419
I1
ssVLove
p5872
(dp5873
g5419
I1
ssVAfrica
p5874
(dp5875
g5419
I1
ssg2238
(dp5876
g5419
I1
ssVDittany
p5877
(dp5878
g5419
I1
ssVSea
p5879
(dp5880
g5419
I1
ssVGallopin
p5881
(dp5882
g5419
I1
ssVHaaaaaa
p5883
(dp5884
g5419
I1
ssVMimsy-Porpington
p5885
(dp5886
g5419
I1
ssVDursleys
p5887
(dp5888
g5419
I53
ssVCrockford
p5889
(dp5890
g5419
I3
ssVOliver
p5891
(dp5892
g5419
I5
ssVFloor
p5893
(dp5894
g5419
I1
ssVD-Defense
p5895
(dp5896
g5419
I1
ssg2247
(dp5897
g5419
I1
ssg2249
(dp5898
g5419
I3
ssg1312
(dp5899
g5419
I4
ssg2254
(dp5900
g5419
I1
ssVHe'd
p5901
(dp5902
g5419
I24
ssg2274
(dp5903
g5419
I1
ssVChaser
p5904
(dp5905
g5419
I5
ssVDuddy
p5906
(dp5907
g5419
I1
ssg2290
(dp5908
g5419
I3
ssVThousand
p5909
(dp5910
g5419
I19
ssVgingerly
p5911
(dp5912
g5419
I1
ssVeagerly
p5913
(dp5914
g5419
I3
ssVBane
p5915
(dp5916
g5419
I14
ssValso
p5917
(dp5918
g5419
I1
ssVDevon
p5919
(dp5920
g5419
I1
ssVMinister
p5921
(dp5922
g5419
I1
ssg2308
(dp5923
g5419
I17
ssVDevelopments
p5924
(dp5925
g5419
I3
ssg5266
(dp5926
g5419
I1
ssVOwls...shooting
p5927
(dp5928
g5419
I1
ssVimportantly
p5929
(dp5930
g5419
I2
ssVVault
p5931
(dp5932
g5419
I2
ssVSide
p5933
(dp5934
g5419
I3
ssg2337
(dp5935
g5419
I14
ssg2353
(dp5936
g5419
I2
ssVHigh
p5937
(dp5938
g5419
I2
ssVBlimey
p5939
(dp5940
g5419
I4
ssVdefinitely
p5941
(dp5942
g5419
I1
ssg2287
(dp5943
g5419
I1
ssg2358
(dp5944
g5419
I15
ssVAlohomora
p5945
(dp5946
g5419
I1
ssVNorris
p5947
(dp5948
g5419
I14
ssVanyway
p5949
(dp5950
g5419
I1
ssVP-P-Potter
p5951
(dp5952
g5419
I2
ssVimpressively
p5953
(dp5954
g5419
I1
ssVearth
p5955
(dp5956
g5419
I11
ssVHat
p5957
(dp5958
g5419
I6
ssVPoor
p5959
(dp5960
g5419
I2
ssVFang
p5961
(dp5962
g5419
I21
ssVDetention
p5963
(dp5964
g5419
I1
ssVsilkily
p5965
(dp5966
g5419
I1
ssVFred
p5967
(dp5968
g5419
I32
ssVRonniekins
p5969
(dp5970
g5419
I1
ssVWight
p5971
(dp5972
g5419
I1
ssVHogwarts
p5973
(dp5974
g5419
I68
ssVGrunnings
p5975
(dp5976
g5419
I1
ssVSnitch
p5977
(dp5978
g5419
I18
ssVConfed
p5979
(dp5980
g5419
I1
ssg2504
(dp5981
g5419
I17
ssVMagic
p5982
(dp5983
g5419
I13
ssVDraconis
p5984
(dp5985
g5419
I1
ssVRoom
p5986
(dp5987
g5419
I1
ssVnearly
p5988
(dp5989
g5419
I4
ssg2851
(dp5990
g5419
I3
ssg2553
(dp5991
g5419
I33
ssVYorkshire
p5992
(dp5993
g5419
I1
ssVAdalbert
p5994
(dp5995
g5419
I1
ssVever
p5996
(dp5997
g5419
I4
ssVFinnigan
p5998
(dp5999
g5419
I9
ssg1996
(dp6000
g5419
I3
ssVDrooble
p6001
(dp6002
g5419
I1
ssVAlley
p6003
(dp6004
g5419
I8
ssg2987
(dp6005
g5419
I1
ssg2583
(dp6006
g5419
I1
ssVBright
p6007
(dp6008
g5419
I2
ssg2586
(dp6009
g5419
I1
ssVJupiter
p6010
(dp6011
g5419
I1
ssVSickles
p6012
(dp6013
g5419
I3
ssVTongue-Tying
p6014
(dp6015
g5419
I1
ssVDraco
p6016
(dp6017
g5419
I9
ssVsilently
p6018
(dp6019
g5419
I1
ssg2992
(dp6020
g5419
I1
ssVdelicately
p6021
(dp6022
g5419
I1
ssg2597
(dp6023
g5419
I2
ssVHotel
p6024
(dp6025
g5419
I1
ssVUric
p6026
(dp6027
g5419
I2
ssVflatly
p6028
(dp6029
g5419
I2
ssVParacelsus
p6030
(dp6031
g5419
I1
ssVNimbus
p6032
(dp6033
g5419
I19
ssVaway
p6034
(dp6035
g5419
I4
ssVcurrently
p6036
(dp6037
g5419
I1
ssg2708
(dp6038
g5419
I1
ssVenough
p6039
(dp6040
g5419
I1
ssVTerry
p6041
(dp6042
g5419
I2
ssVSelf-Stirring
p6043
(dp6044
g5419
I1
ssVJuly
p6045
(dp6046
g5419
I4
ssVCirce
p6047
(dp6048
g5419
I1
ssg2711
(dp6049
g5419
I1
ssVKing
p6050
(dp6051
g5419
I6
ssg943
(dp6052
g5419
I1
ssVJohnson
p6053
(dp6054
g5419
I4
ssVStudy
p6055
(dp6056
g5419
I3
ssg2998
(dp6057
g5419
I1
ssVMalfoy
p6058
(dp6059
g5419
I134
ssVStonewall
p6060
(dp6061
g5419
I3
ssVBlotts
p6062
(dp6063
g5419
I1
ssVStone...I
p6064
(dp6065
g5419
I1
ssVGrounds
p6066
(dp6067
g5419
I1
ssg2720
(dp6068
g5419
I8
ssVbarely
p6069
(dp6070
g5419
I1
ssVthickly
p6071
(dp6072
g5419
I1
ssg2738
(dp6073
g5419
I2
ssVHengist
p6074
(dp6075
g5419
I1
ssg2741
(dp6076
g5419
I6
ssg2749
(dp6077
g5419
I2
ssVSlytherin
p6078
(dp6079
g5419
I42
ssVAaah
p6080
(dp6081
g5419
I1
ssVYer
p6082
(dp6083
g5419
I4
ssVsafely
p6084
(dp6085
g5419
I3
ssVblissfully
p6086
(dp6087
g5419
I1
ssVYew
p6088
(dp6089
g5419
I2
ssg2714
(dp6090
g5419
I4
ssVNott
p6091
(dp6092
g5419
I1
ssVGuess
p6093
(dp6094
g5419
I1
ssVPotter....After
p6095
(dp6096
g5419
I1
ssVSmoke
p6097
(dp6098
g5419
I1
ssVFetchin
p6099
(dp6100
g5419
I1
ssVHufflepuffs
p6101
(dp6102
g5419
I5
ssVGorgons
p6103
(dp6104
g5419
I1
ssg5401
(dp6105
g5419
I3
ssVMuggle
p6106
(dp6107
g5419
I8
ssVsimply
p6108
(dp6109
g5419
I1
ssVForest
p6110
(dp6111
g5419
I1
ssVIreland
p6112
(dp6113
g5419
I1
ssVHufflepuff
p6114
(dp6115
g5419
I14
ssVLily
p6116
(dp6117
g5419
I7
ssVHumberto
p6118
(dp6119
g5419
I1
ssVCliodna
p6120
(dp6121
g5419
I1
ssVUrgh
p6122
(dp6123
g5419
I1
ssVRemembrall
p6124
(dp6125
g5419
I7
ssg2838
(dp6126
g5419
I11
ssg2854
(dp6127
g5419
I1
ssVJus
p6128
(dp6129
g5419
I1
ssVslowly
p6130
(dp6131
g5419
I1
ssVStick
p6132
(dp6133
g5419
I2
ssVArts.
p6134
(dp6135
g5419
I2
ssVhardly
p6136
(dp6137
g5419
I2
ssVPince
p6138
(dp6139
g5419
I2
ssg2857
(dp6140
g5419
I160
ssVTrevor
p6141
(dp6142
g5419
I1
ssVDragon
p6143
(dp6144
g5419
I2
ssVAha
p6145
(dp6146
g5419
I1
ssg2989
(dp6147
g5419
I1
ssg2994
(dp6148
g5419
I1
ssg2327
(dp6149
g5419
I4
ssVOuch
p6150
(dp6151
g5419
I2
ssVCold
p6152
(dp6153
g5419
I1
ssg3008
(dp6154
g5419
I1
ssVAgrippa
p6155
(dp6156
g5419
I3
ssValmost
p6157
(dp6158
g5419
I2
ssVNah
p6159
(dp6160
g5419
I6
ssVBetter
p6161
(dp6162
g5419
I3
ssg1274
(dp6163
g5419
I1
ssVWood
p6164
(dp6165
g5419
I59
ssVBludgers
p6166
(dp6167
g5419
I11
ssg3094
(dp6168
g5419
I2
ssVConvention
p6169
(dp6170
g5419
I1
ssVAlbus
p6171
(dp6172
g5419
I12
ssVEyes
p6173
(dp6174
g5419
I1
ssVYes...look
p6175
(dp6176
g5419
I1
ssg3115
(dp6177
g5419
I181
ssVBlood
p6178
(dp6179
g5419
I1
ssVSorc
p6180
(dp6181
g5419
I1
ssVPresident
p6182
(dp6183
g5419
I2
ssVThanksss
p6184
(dp6185
g5419
I1
ssVThird
p6186
(dp6187
g5419
I2
ssVProphet
p6188
(dp6189
g5419
I3
ssVFungi
p6190
(dp6191
g5419
I3
ssVusually
p6192
(dp6193
g5419
I1
ssVBristol
p6194
(dp6195
g5419
I1
ssVPatil
p6196
(dp6197
g5419
I6
ssg2800
(dp6198
g5419
I1
ssVshortly
p6199
(dp6200
g5419
I2
ssVHerbology
p6201
(dp6202
g5419
I5
ssVroughly
p6203
(dp6204
g5419
I1
ssVMakers
p6205
(dp6206
g5419
I2
ssVFinch-Fletchley
p6207
(dp6208
g5419
I1
ssVDennis
p6209
(dp6210
g5419
I1
ssVMorag
p6211
(dp6212
g5419
I1
ssVSunshine
p6213
(dp6214
g5419
I1
ssVjust
p6215
(dp6216
g5419
I6
ssVirritably
p6217
(dp6218
g5419
I2
ssVaside
p6219
(dp6220
g5419
I2
ssVFourth
p6221
(dp6222
g5419
I1
ssVNicholas
p6223
(dp6224
g5419
I3
ssVyet
p6225
(dp6226
g5419
I2
ssVRavenclaw
p6227
(dp6228
g5419
I10
ssg3286
(dp6229
g5419
I1
ssVOh.
p6230
(dp6231
g5419
I1
ssVTheory
p6232
(dp6233
g5419
I1
ssVFriday
p6234
(dp6235
g5419
I5
ssg3288
(dp6236
g5419
I1
ssVFlint
p6237
(dp6238
g5419
I14
ssVdully
p6239
(dp6240
g5419
I1
ssVRonan
p6241
(dp6242
g5419
I21
ssVPrefect
p6243
(dp6244
g5419
I2
ssg3309
(dp6245
g5419
I3
ssVCleansweep
p6246
(dp6247
g5419
I1
ssVJames
p6248
(dp6249
g5419
I4
ssVYvonne
p6250
(dp6251
g5419
I1
ssVMorning
p6252
(dp6253
g5419
I1
ssVpossibly
p6254
(dp6255
g5419
I1
ssg3338
(dp6256
g5419
I4
ssVPiers
p6257
(dp6258
g5419
I19
ssVapart
p6259
(dp6260
g5419
I4
ssVJelly-Legs
p6261
(dp6262
g5419
I1
ssVHeart
p6263
(dp6264
g5419
I1
ssVEngland
p6265
(dp6266
g5419
I2
ssg3070
(dp6267
g5419
I1
ssVShhh
p6268
(dp6269
g5419
I1
ssg3368
(dp6270
g5419
I13
ssVmid-December
p6271
(dp6272
g5419
I1
ssVSmeltings
p6273
(dp6274
g5419
I4
ssVFine
p6275
(dp6276
g5419
I3
ssVSpecies
p6277
(dp6278
g5419
I1
ssVRubeus
p6279
(dp6280
g5419
I3
ssVShoo
p6281
(dp6282
g5419
I1
ssVGryffindors
p6283
(dp6284
g5419
I15
ssVLittle
p6285
(dp6286
g5419
I2
ssVoften
p6287
(dp6288
g5419
I5
ssg4033
(dp6289
g5419
I2
ssVback
p6290
(dp6291
g5419
I10
ssg3391
(dp6292
g5419
I126
ssVMars
p6293
(dp6294
g5419
I5
ssg3495
(dp6295
g5419
I9
ssVCrabbe
p6296
(dp6297
g5419
I24
ssVLife
p6298
(dp6299
g5419
I4
ssVMajorca
p6300
(dp6301
g5419
I1
ssVLee
p6302
(dp6303
g5419
I11
ssVOooooooh
p6304
(dp6305
g5419
I1
ssg426
(dp6306
g5419
I1
ssVSeverus
p6307
(dp6308
g5419
I5
ssVPrefects
p6309
(dp6310
g5419
I1
ssVStairs
p6311
(dp6312
g5419
I1
ssVFirs
p6313
(dp6314
g5419
I3
ssg3533
(dp6315
g5419
I1
ssVNorbert
p6316
(dp6317
g5419
I28
ssVDunno
p6318
(dp6319
g5419
I4
ssVBill
p6320
(dp6321
g5419
I5
ssVGran
p6322
(dp6323
g5419
I3
ssg3571
(dp6324
g5419
I1
ssg3574
(dp6325
g5419
I3
ssVSusan
p6326
(dp6327
g5419
I2
ssVFirst
p6328
(dp6329
g5419
I2
ssVBars
p6330
(dp6331
g5419
I2
ssg3579
(dp6332
g5419
I3
ssVRon
p6333
(dp6334
g5419
I436
ssVRavenclaws
p6335
(dp6336
g5419
I2
ssVAges
p6337
(dp6338
g5419
I5
ssVEnid
p6339
(dp6340
g5419
I1
ssg3963
(dp6341
g5419
I2
ssVBarn
p6342
(dp6343
g5419
I1
ssVhotly
p6344
(dp6345
g5419
I1
ssg3967
(dp6346
g5419
I6
ssVBaron
p6347
(dp6348
g5419
I9
ssVCup
p6349
(dp6350
g5419
I2
ssVBagshot
p6351
(dp6352
g5419
I1
ssg3975
(dp6353
g5419
I8
ssVdown
p6354
(dp6355
g5419
I4
ssVBeater
p6356
(dp6357
g5419
I1
ssg3987
(dp6358
g5419
I1
ssVHarold
p6359
(dp6360
g5419
I2
ssVCrikey
p6361
(dp6362
g5419
I1
ssVvan
p6363
(dp6364
g5419
I2
ssVKeys
p6365
(dp6366
g5419
I2
ssVconstantly
p6367
(dp6368
g5419
I2
ssVHang
p6369
(dp6370
g5419
I2
ssVOoh
p6371
(dp6372
g5419
I1
ssVFirenze
p6373
(dp6374
g5419
I19
ssVJames...I
p6375
(dp6376
g5419
I1
ssVSundays
p6377
(dp6378
g5419
I1
ssVMandy
p6379
(dp6380
g5419
I1
ssVcuriously
p6381
(dp6382
g5419
I1
ssg4042
(dp6383
g5419
I1
ssVHarry
p6384
(dp6385
g5419
I1448
ssVnervously
p6386
(dp6387
g5419
I3
ssVLight
p6388
(dp6389
g5419
I2
ssVGuide
p6390
(dp6391
g5419
I3
ssVMalkin
p6392
(dp6393
g5419
I7
ssVBell
p6394
(dp6395
g5419
I3
ssg86
(dp6396
g5419
I6
ssVHouse
p6397
(dp6398
g5419
I3
ssVTed
p6399
(dp6400
g5419
I1
ssg5252
(dp6401
g5419
I12
ssVBritain
p6402
(dp6403
g5419
I4
ssVBrass
p6404
(dp6405
g5419
I1
ssVMaster
p6406
(dp6407
g5419
I3
ssVstrongly
p6408
(dp6409
g5419
I1
ssVSir
p6410
(dp6411
g5419
I11
ssg5282
(dp6412
g5419
I80
ssg5362
(dp6413
g5419
I2
ssVCross
p6414
(dp6415
g5419
I4
ssVThursday
p6416
(dp6417
g5419
I1
ssVsometime
p6418
(dp6419
g5419
I1
ssVgruffly
p6420
(dp6421
g5419
I2
ssVCurious...curious
p6422
(dp6423
g5419
I1
ssVDarling
p6424
(dp6425
g5419
I1
ssg5367
(dp6426
g5419
I1
ssVGinny
p6427
(dp6428
g5419
I5
ssVstiffly
p6429
(dp6430
g5419
I1
ssVagain
p6431
(dp6432
g5419
I7
ssVCodswallop
p6433
(dp6434
g5419
I2
ssVCopyin
p6435
(dp6436
g5419
I1
ssVDuddydums
p6437
(dp6438
g5419
I1
ssVZabini
p6439
(dp6440
g5419
I1
ssg3269
(dp6441
g5419
I3
ssVBlaise
p6442
(dp6443
g5419
I1
ssVMad
p6444
(dp6445
g5419
I1
ssg3382
(dp6446
g5419
I1
ssVPassword
p6447
(dp6448
g5419
I1
ssg3356
(dp6449
g5419
I10
ssVPearly-white
p6450
(dp6451
g5419
I1
ssVLas
p6452
(dp6453
g5419
I2
ssVGreat
p6454
(dp6455
g5419
I26
ssVfaintly
p6456
(dp6457
g5419
I2
ssVDrive
p6458
(dp6459
g5419
I22
ssVEve
p6460
(dp6461
g5419
I1
ssVCheer
p6462
(dp6463
g5419
I1
ssVAbou
p6464
(dp6465
g5419
I1
ssg3989
(dp6466
g5419
I22
ssVawkwardly
p6467
(dp6468
g5419
I1
ssVPolkiss
p6469
(dp6470
g5419
I2
ssVMalcolm
p6471
(dp6472
g5419
I1
ssVtogether
p6473
(dp6474
g5419
I1
ssVSaturday
p6475
(dp6476
g5419
I8
ssVMcKinnons
p6477
(dp6478
g5419
I1
ssVPerenelle
p6479
(dp6480
g5419
I2
sssS'node_dict_factory'
p6481
g5408
(S'DictType'
p6482
tp6483
Rp6484
sS'edge_attr_dict_factory'
p6485
g6484
sS'edge'
p6486
(dp6487
g5417
(dp6488
sg5420
(dp6489
g5462
(dp6490
S'paired'
p6491
I01
sS'value'
p6492
I1
sssg4
(dp6493
sg5423
(dp6494
g6414
(dp6495
g6491
I01
sg6492
I1
sssg5425
(dp6496
sg5427
(dp6497
sg6
(dp6498
sg25
(dp6499
sg5431
(dp6500
sg5433
(dp6501
VVernon
p6502
(dp6503
g6491
I00
sg6492
I1
ssg5456
(dp6504
g6491
I00
sg6492
I1
ssVMalfoy
p6505
(dp6506
g6491
I01
sg6492
I2
sssg5435
(dp6507
g6053
(dp6508
g6491
I01
sg6492
I2
sssg5437
(dp6509
sg5439
(dp6510
VPercy
p6511
(dp6512
g6491
I01
sg6492
I1
ssVWeasley
p6513
(dp6514
g6491
I01
sg6492
I1
sssg48
(dp6515
sg5442
(dp6516
sg5444
(dp6517
VLee
p6518
(dp6519
g6491
I00
sg6492
I1
ssVRon
p6520
(dp6521
g6491
I00
sg6492
I2
ssVDumbledore
p6522
(dp6523
g6491
I00
sg6492
I1
ssVJordan
p6524
(dp6525
g6491
I00
sg6492
I1
ssVHarry
p6526
(dp6527
g6491
I00
sg6492
I1
ssVScabbers
p6528
(dp6529
g6491
I00
sg6492
I1
sssg5446
(dp6530
sg5448
(dp6531
sg5450
(dp6532
sg5452
(dp6533
sg5454
(dp6534
VHermione
p6535
(dp6536
g6491
I00
sg6492
I1
ssVYer
p6537
(dp6538
g6491
I00
sg6492
I1
ssg6475
(dp6539
g6491
I01
sg6492
I2
ssVDudley
p6540
(dp6541
g6491
I00
sg6492
I1
sssg5456
(dp6542
VLord
p6543
(dp6544
g6491
I01
sg6492
I2
ssVcertainly
p6545
g6504
sVagain
p6546
(dp6547
g6491
I00
sg6492
I1
sssg5458
(dp6548
Vonly
p6549
(dp6550
g6491
I00
sg6492
I1
ssg6275
(dp6551
g6491
I01
sg6492
I2
sssg5460
(dp6552
g5746
(dp6553
g6491
I00
sg6492
I1
ssValways
p6554
(dp6555
g6491
I00
sg6492
I1
sssg5462
(dp6556
g5420
g6490
ssg5464
(dp6557
sg1069
(dp6558
sg5467
(dp6559
sg5469
(dp6560
VHarry
p6561
(dp6562
g6491
I00
sg6492
I1
sssg5471
(dp6563
sg5473
(dp6564
sg5475
(dp6565
VGranger
p6566
(dp6567
g6491
I01
sg6492
I1
sssg2003
(dp6568
VHarry
p6569
(dp6570
g6491
I01
sg6492
I1
sssg5478
(dp6571
sg5480
(dp6572
sg5482
(dp6573
g6287
(dp6574
g6491
I01
sg6492
I2
ssVsuddenly
p6575
(dp6576
g6491
I00
sg6492
I1
ssVVernon
p6577
(dp6578
g6491
I00
sg6492
I6
ssVDudley
p6579
(dp6580
g6491
I00
sg6492
I4
ssg5760
(dp6581
g6491
I01
sg6492
I1
ssg6130
(dp6582
g6491
I01
sg6492
I1
ssg6239
(dp6583
g6491
I01
sg6492
I1
sssg5484
(dp6584
VPercy
p6585
(dp6586
g6491
I00
sg6492
I1
ssVnow
p6587
(dp6588
g6491
I00
sg6492
I1
ssVreally
p6589
(dp6590
g6491
I00
sg6492
I1
ssg216
(dp6591
g6491
I00
sg6492
I6
ssVFred
p6592
(dp6593
g6491
I00
sg6492
I8
sssg213
(dp6594
sg5487
(dp6595
sg5489
(dp6596
sg5491
(dp6597
sg216
(dp6598
g5832
(dp6599
g6491
I01
sg6492
I1
ssVRon
p6600
(dp6601
g6491
I00
sg6492
I1
ssg5439
g6514
sVCharlie
p6602
(dp6603
g6491
I00
sg6492
I2
ssg5967
(dp6604
g6491
I00
sg6492
I7
ssVPercy
p6605
(dp6606
g6491
I00
sg6492
I1
ssVMr.
p6607
(dp6608
g6491
I00
sg6492
I4
ssVHermione
p6609
(dp6610
g6491
I00
sg6492
I1
ssVGranger
p6611
(dp6612
g6491
I00
sg6492
I1
ssg6587
(dp6613
g6491
I00
sg6492
I1
ssg6427
(dp6614
g6491
I00
sg6492
I1
ssg5484
g6591
sg6589
(dp6615
g6491
I00
sg6492
I1
sssg253
(dp6616
sg5495
(dp6617
sg5497
(dp6618
VBludger
p6619
(dp6620
g6491
I00
sg6492
I1
ssVHarry
p6621
(dp6622
g6491
I00
sg6492
I1
sssg5499
(dp6623
VProfessor
p6624
(dp6625
g6491
I01
sg6492
I1
ssVMcGonagall
p6626
(dp6627
g6491
I01
sg6492
I1
sssg5501
(dp6628
sg5503
(dp6629
sg5505
(dp6630
g6296
(dp6631
g6491
I01
sg6492
I11
sssg309
(dp6632
sg311
(dp6633
sg5509
(dp6634
sg5511
(dp6635
VGreat
p6636
(dp6637
g6491
I01
sg6492
I3
sssg5513
(dp6638
sg5515
(dp6639
sg3019
(dp6640
sg5518
(dp6641
sg5520
(dp6642
g6290
(dp6643
g6491
I01
sg6492
I2
sssg5522
(dp6644
sg5524
(dp6645
sg5526
(dp6646
g3495
(dp6647
g6491
I00
sg6492
I2
ssVsuddenly
p6648
(dp6649
g6491
I00
sg6492
I1
ssg3571
(dp6650
g6491
I01
sg6492
I1
ssVHermione
p6651
(dp6652
g6491
I00
sg6492
I4
ssg6086
(dp6653
g6491
I01
sg6492
I1
sssg5528
(dp6654
sg5530
(dp6655
VSlytherin
p6656
(dp6657
g6491
I01
sg6492
I2
sssg427
(dp6658
g6320
(dp6659
g6491
I00
sg6492
I1
ssVWeasley
p6660
g6603
sVHagrid
p6661
(dp6662
g6491
I00
sg6492
I1
sssg5533
(dp6663
g1822
(dp6664
g6491
I01
sg6492
I97
ssg5499
g6625
sg5718
(dp6665
g6491
I01
sg6492
I1
ssg6217
(dp6666
g6491
I01
sg6492
I1
ssg6456
(dp6667
g6491
I01
sg6492
I1
ssg3989
(dp6668
g6491
I01
sg6492
I17
ssg5692
(dp6669
g6491
I01
sg6492
I3
ssg3391
(dp6670
g6491
I00
sg6492
I20
ssg3115
(dp6671
g6491
I00
sg6492
I8
ssg5674
(dp6672
g6491
I01
sg6492
I1
ssVnow
p6673
(dp6674
g6491
I00
sg6492
I1
ssVDumbledore
p6675
(dp6676
g6491
I00
sg6492
I22
ssg3574
(dp6677
g6491
I00
sg6492
I1
ssg6018
(dp6678
g6491
I01
sg6492
I1
sssg5535
(dp6679
g5901
(dp6680
g6491
I01
sg6492
I7
ssg5982
(dp6681
g6491
I00
sg6492
I2
ssg5804
(dp6682
g6491
I00
sg6492
I1
sssg5537
(dp6683
VDumbledore
p6684
(dp6685
g6491
I00
sg6492
I1
ssVLongbottom
p6686
(dp6687
g6491
I00
sg6492
I1
ssVMalfoy
p6688
(dp6689
g6491
I00
sg6492
I1
sssg5539
(dp6690
sg2104
(dp6691
VHagrid
p6692
(dp6693
g6491
I00
sg6492
I1
ssVRon
p6694
(dp6695
g6491
I00
sg6492
I1
ssVHarry
p6696
(dp6697
g6491
I00
sg6492
I1
sssg5542
(dp6698
Vsecond
p6699
g6620
sVfuriously
p6700
(dp6701
g6491
I00
sg6492
I1
ssVback
p6702
(dp6703
g6491
I00
sg6492
I1
sssg5544
(dp6704
g6344
(dp6705
g6491
I01
sg6492
I1
ssg3967
(dp6706
g6491
I00
sg6492
I1
ssVsuddenly
p6707
(dp6708
g6491
I00
sg6492
I2
ssVgrumpily
p6709
(dp6710
g6491
I01
sg6492
I1
ssVirritably
p6711
(dp6712
g6491
I01
sg6492
I1
ssg4033
(dp6713
g6491
I01
sg6492
I1
ssVdown
p6714
(dp6715
g6491
I00
sg6492
I1
ssg5630
(dp6716
g6491
I01
sg6492
I1
ssg6108
(dp6717
g6491
I01
sg6492
I1
ssg6028
(dp6718
g6491
I01
sg6492
I1
ssg5714
(dp6719
g6491
I00
sg6492
I1
ssg5367
(dp6720
g6491
I01
sg6492
I1
ssVagain
p6721
(dp6722
g6491
I00
sg6492
I2
ssg5911
(dp6723
g6491
I01
sg6492
I1
ssVquickly
p6724
(dp6725
g6491
I00
sg6492
I1
ssValmost
p6726
(dp6727
g6491
I01
sg6492
I1
ssg6039
(dp6728
g6491
I01
sg6492
I1
ssg5941
(dp6729
g6491
I01
sg6492
I1
ssVfuriously
p6730
(dp6731
g6491
I00
sg6492
I1
ssVcasually
p6732
(dp6733
g6491
I00
sg6492
I1
ssVCharlie
p6734
g6662
sg5610
(dp6735
g6491
I01
sg6492
I1
ssg2104
g6693
sg5929
(dp6736
g6491
I01
sg6492
I1
ssVHarry
p6737
(dp6738
g6491
I00
sg6492
I2
ssg5752
(dp6739
g6491
I00
sg6492
I1
ssg6420
(dp6740
g6491
I01
sg6492
I2
ssg2583
(dp6741
g6491
I01
sg6492
I1
ssVloudly
p6742
(dp6743
g6491
I00
sg6492
I1
ssg6279
(dp6744
g6491
I01
sg6492
I2
sssg5546
(dp6745
g5738
(dp6746
g6491
I01
sg6492
I3
ssVfuriously
p6747
(dp6748
g6491
I00
sg6492
I1
ssVSeamus
p6749
(dp6750
g6491
I00
sg6492
I1
sssg5548
(dp6751
VQuirrell
p6752
(dp6753
g6491
I01
sg6492
I1
sssg5550
(dp6754
sg5552
(dp6755
sg1309
(dp6756
sg5555
(dp6757
sg5557
(dp6758
g6243
(dp6759
g6491
I01
sg6492
I2
ssg5439
g6512
sVWeasley
p6760
g6606
sg6071
(dp6761
g6491
I01
sg6492
I1
ssg5816
(dp6762
g6491
I01
sg6492
I1
ssg6609
(dp6763
g6491
I00
sg6492
I1
ssVGeorge
p6764
g6586
sg2711
(dp6765
g6491
I01
sg6492
I1
ssVnearly
p6766
(dp6767
g6491
I00
sg6492
I1
sssg5559
(dp6768
Vimportantly
p6769
(dp6770
g6491
I01
sg6492
I1
sssg5561
(dp6771
VWizard
p6772
(dp6773
g6491
I01
sg6492
I1
sssg5563
(dp6774
sg5565
(dp6775
sg957
(dp6776
sg972
(dp6777
sg5569
(dp6778
g6196
(dp6779
g6491
I01
sg6492
I3
sssg5571
(dp6780
sg979
(dp6781
VNeville
p6782
g6649
sVHagrid
p6783
g6708
sVRon
p6784
(dp6785
g6491
I00
sg6492
I2
ssVDudley
p6786
(dp6787
g6491
I00
sg6492
I1
ssg6373
(dp6788
g6491
I00
sg6492
I2
ssVVernon
p6789
(dp6790
g6491
I00
sg6492
I1
ssVSnape
p6791
(dp6792
g6491
I00
sg6492
I1
ssVHermione
p6793
(dp6794
g6491
I00
sg6492
I1
ssVHarry
p6795
(dp6796
g6491
I00
sg6492
I4
ssVPetunia
p6797
g6576
ssg5574
(dp6798
sg5576
(dp6799
sg997
(dp6800
VHarry
p6801
(dp6802
g6491
I01
sg6492
I1
sssg5579
(dp6803
sg5581
(dp6804
g6021
(dp6805
g6491
I01
sg6492
I1
sssg5583
(dp6806
sg5585
(dp6807
VHarry
p6808
(dp6809
g6491
I01
sg6492
I1
sssg1008
(dp6810
sg5588
(dp6811
sg5590
(dp6812
sg1107
(dp6813
sg5593
(dp6814
sg5595
(dp6815
sg5597
(dp6816
VHogwarts
p6817
(dp6818
g6491
I00
sg6492
I1
sssg2412
(dp6819
VGryffindors
p6820
(dp6821
g6491
I00
sg6492
I1
ssVQuidditch
p6822
(dp6823
g6491
I00
sg6492
I1
ssVRon
p6824
(dp6825
g6491
I00
sg6492
I1
ssg6036
(dp6826
g6491
I01
sg6492
I1
ssVMalfoy
p6827
(dp6828
g6491
I00
sg6492
I1
ssVWands
p6829
g6550
sVHarry
p6830
(dp6831
g6491
I00
sg6492
I2
sssg1109
(dp6832
sg5601
(dp6833
g5433
g6503
sg6199
(dp6834
g6491
I01
sg6492
I1
ssVDursley
p6835
(dp6836
g6491
I00
sg6492
I1
ssVsuddenly
p6837
g6790
sVHarry
p6838
(dp6839
g6491
I00
sg6492
I1
ssVDudley
p6840
(dp6841
g6491
I00
sg6492
I3
ssg5725
(dp6842
g6491
I01
sg6492
I1
ssg5988
(dp6843
g6491
I00
sg6492
I1
ssg5845
(dp6844
g6491
I01
sg6492
I1
ssg5850
(dp6845
g6491
I01
sg6492
I1
ssVPetunia
p6846
g6578
ssg5603
(dp6847
VRon
p6848
(dp6849
g6491
I01
sg6492
I1
sssg5605
(dp6850
Vagain
p6851
(dp6852
g6491
I00
sg6492
I1
sssg5607
(dp6853
sg1184
(dp6854
sg5610
(dp6855
VHagrid
p6856
g6735
sVHermione
p6857
(dp6858
g6491
I01
sg6492
I1
sssg2487
(dp6859
VWeasley
p6860
g6612
sVMr.
p6861
(dp6862
g6491
I00
sg6492
I1
ssg5682
(dp6863
g6491
I01
sg6492
I19
ssg5475
g6567
ssg1214
(dp6864
sg5614
(dp6865
sg1220
(dp6866
sg5617
(dp6867
VMr.
p6868
(dp6869
g6491
I01
sg6492
I1
ssVOllivander
p6870
(dp6871
g6491
I01
sg6492
I1
ssVHarry
p6872
(dp6873
g6491
I01
sg6492
I1
sssg5619
(dp6874
sg5365
(dp6875
sg5622
(dp6876
g5998
(dp6877
g6491
I01
sg6492
I8
ssVDean
p6878
g6750
sVHarry
p6879
(dp6880
g6491
I00
sg6492
I1
sssg5624
(dp6881
sg5626
(dp6882
sg5628
(dp6883
sg5630
(dp6884
VHagrid
p6885
g6716
ssg5632
(dp6886
sg5634
(dp6887
sg5636
(dp6888
Vgood
p6889
(dp6890
g6491
I00
sg6492
I1
ssg6349
(dp6891
g6491
I01
sg6492
I1
ssg6367
(dp6892
g6491
I01
sg6492
I2
ssVonly
p6893
g6823
sVWood
p6894
(dp6895
g6491
I00
sg6492
I1
ssg5955
(dp6896
g6491
I00
sg6492
I1
sssg5638
(dp6897
g5561
g6773
sg5708
(dp6898
g6491
I01
sg6492
I1
sssg5640
(dp6899
sg5642
(dp6900
g5282
(dp6901
g6491
I01
sg6492
I46
ssg1883
(dp6902
g6491
I00
sg6492
I2
ssg6095
(dp6903
g6491
I01
sg6492
I1
ssVPotter
p6904
(dp6905
g6491
I00
sg6492
I18
ssVWeasley
p6906
g6608
sVMalfoy
p6907
(dp6908
g6491
I00
sg6492
I1
ssg2020
(dp6909
g6491
I00
sg6492
I3
ssg2741
(dp6910
g6491
I00
sg6492
I2
ssg5841
(dp6911
g6491
I00
sg6492
I1
ssg5617
g6869
sg6611
g6862
sVFlamel
p6912
(dp6913
g6491
I00
sg6492
I2
ssVLongbottom
p6914
(dp6915
g6491
I00
sg6492
I2
ssg2358
(dp6916
g6491
I01
sg6492
I13
ssg6347
(dp6917
g6491
I00
sg6492
I1
sssg5644
(dp6918
VGreat
p6919
(dp6920
g6491
I01
sg6492
I2
sssg5646
(dp6921
g5733
(dp6922
g6491
I00
sg6492
I1
ssVVoldemort
p6923
g6544
ssg5648
(dp6924
g6460
(dp6925
g6491
I01
sg6492
I1
sssg5650
(dp6926
VDumbledore
p6927
(dp6928
g6491
I01
sg6492
I1
sssg5652
(dp6929
sg5654
(dp6930
VHouse
p6931
(dp6932
g6491
I01
sg6492
I2
ssg5750
(dp6933
g6491
I01
sg6492
I1
ssVreally
p6934
(dp6935
g6491
I00
sg6492
I1
ssVnow
p6936
(dp6937
g6491
I00
sg6492
I1
ssg6356
(dp6938
g6491
I01
sg6492
I1
sssg5656
(dp6939
sg5658
(dp6940
sg5660
(dp6941
sg5662
(dp6942
sg5664
(dp6943
sg5666
(dp6944
Vfinally
p6945
g6525
sg6302
(dp6946
g6491
I01
sg6492
I7
sssg5668
(dp6947
sg5670
(dp6948
sg5672
(dp6949
g5784
(dp6950
g6491
I01
sg6492
I1
ssVRon
p6951
(dp6952
g6491
I01
sg6492
I1
sssg5674
(dp6953
VProfessor
p6954
g6672
sVMcGonagall
p6955
(dp6956
g6491
I01
sg6492
I1
sssg1455
(dp6957
VBludger
p6958
g6701
sVHagrid
p6959
g6731
sVDean
p6960
g6748
sVRon
p6961
(dp6962
g6491
I00
sg6492
I1
ssVHarry
p6963
(dp6964
g6491
I00
sg6492
I2
sssg5677
(dp6965
sg5679
(dp6966
g6285
(dp6967
g6491
I01
sg6492
I1
sssg5251
(dp6968
sg5682
(dp6969
g5526
g6652
sg2998
(dp6970
g6491
I01
sg6492
I1
ssVmiserably
p6971
(dp6972
g6491
I01
sg6492
I1
ssVRon
p6973
(dp6974
g6491
I00
sg6492
I22
ssVsuddenly
p6975
g6794
sValways
p6976
(dp6977
g6491
I00
sg6492
I1
ssVgrimly
p6978
g6858
sVHarry
p6979
(dp6980
g6491
I00
sg6492
I16
ssVfaintly
p6981
(dp6982
g6491
I01
sg6492
I1
ssVWeasley
p6983
g6610
sVPercy
p6984
g6763
sVvery
p6985
g6536
sg2487
g6863
sVnervously
p6986
(dp6987
g6491
I00
sg6492
I1
ssg5829
(dp6988
g6491
I01
sg6492
I1
ssVever
p6989
(dp6990
g6491
I00
sg6492
I1
ssg2287
(dp6991
g6491
I01
sg6492
I1
sssg5684
(dp6992
sg5686
(dp6993
sg5688
(dp6994
g5729
(dp6995
g6491
I00
sg6492
I1
sssg5690
(dp6996
sg5692
(dp6997
VProfessor
p6998
g6669
ssg5694
(dp6999
sg5696
(dp7000
sg5698
(dp7001
sg5700
(dp7002
sg5702
(dp7003
sg5704
(dp7004
g6155
(dp7005
g6491
I01
sg6492
I1
sssg5706
(dp7006
VQuirrell
p7007
(dp7008
g6491
I01
sg6492
I1
ssVHarry
p7009
(dp7010
g6491
I01
sg6492
I1
sssg5708
(dp7011
g5638
g6898
ssg5710
(dp7012
VDursley
p7013
(dp7014
g6491
I00
sg6492
I1
ssg979
g6787
sg2838
(dp7015
g6491
I00
sg6492
I2
ssVvery
p7016
g6541
sVVernon
p7017
g6841
sg5806
(dp7018
g6491
I01
sg6492
I1
ssVHarry
p7019
(dp7020
g6491
I00
sg6492
I2
ssVPetunia
p7021
g6580
sVPiers
p7022
(dp7023
g6491
I01
sg6492
I12
sssg5712
(dp7024
sg5714
(dp7025
VHagrid
p7026
g6719
sVRon
p7027
(dp7028
g6491
I01
sg6492
I2
sssg5716
(dp7029
VHarry
p7030
(dp7031
g6491
I01
sg6492
I1
sssg5718
(dp7032
VProfessor
p7033
g6665
ssg5720
(dp7034
VBludgers
p7035
(dp7036
g6491
I00
sg6492
I1
sssg5722
(dp7037
sg1822
(dp7038
g6217
(dp7039
g6491
I01
sg6492
I1
ssg5533
g6664
sVDumbledore
p7040
(dp7041
g6491
I00
sg6492
I1
ssg6456
(dp7042
g6491
I01
sg6492
I1
ssVFlitwick
p7043
(dp7044
g6491
I00
sg6492
I1
ssg5499
g6627
sVSnape
p7045
(dp7046
g6491
I00
sg6492
I1
ssg5674
g6956
sg6673
(dp7047
g6491
I00
sg6492
I1
ssg3574
(dp7048
g6491
I00
sg6492
I1
ssg6018
(dp7049
g6491
I01
sg6492
I1
sssg5725
(dp7050
VVernon
p7051
g6842
ssg1879
(dp7052
sg3267
(dp7053
sg5729
(dp7054
g5688
g6995
sVHarry
p7055
(dp7056
g6491
I01
sg6492
I3
sssg5731
(dp7057
sg5733
(dp7058
g5646
g6922
sVQuidditch
p7059
g6890
ssg1881
(dp7060
sg5736
(dp7061
sg5738
(dp7062
g5546
g6746
ssg5740
(dp7063
VAlbus
p7064
(dp7065
g6491
I01
sg6492
I1
sssg5742
(dp7066
sg5744
(dp7067
sg5746
(dp7068
g5973
(dp7069
g6491
I00
sg6492
I1
ssg5460
g6553
sVPotter
p7070
(dp7071
g6491
I00
sg6492
I1
ssg6082
(dp7072
g6491
I01
sg6492
I2
ssVHarry
p7073
(dp7074
g6491
I01
sg6492
I3
sssg5748
(dp7075
sg5750
(dp7076
g5654
g6933
ssg5752
(dp7077
VGryffindor
p7078
g6937
sVHagrid
p7079
g6739
sVProfessor
p7080
g6674
sVMcGonagall
p7081
g7047
sVWeasley
p7082
g6613
sVMalfoy
p7083
(dp7084
g6491
I00
sg6492
I1
ssVFred
p7085
(dp7086
g6491
I00
sg6492
I1
ssVHarry
p7087
(dp7088
g6491
I00
sg6492
I2
ssVDumbledore
p7089
(dp7090
g6491
I00
sg6492
I1
ssVGeorge
p7091
g6588
ssg1883
(dp7092
VMr.
p7093
g6902
sVI'd
p7094
g6555
sVSnape
p7095
(dp7096
g6491
I00
sg6492
I1
ssVDursley
p7097
(dp7098
g6491
I00
sg6492
I2
ssVHermione
p7099
g6977
ssg3383
(dp7100
VRon
p7101
(dp7102
g6491
I01
sg6492
I1
sssg5756
(dp7103
g6248
(dp7104
g6491
I01
sg6492
I3
ssVMr.
p7105
g6905
sg6384
(dp7106
g6491
I00
sg6492
I25
ssVnot
p7107
g7071
sg6116
(dp7108
g6491
I00
sg6492
I1
ssg5776
(dp7109
g6491
I00
sg6492
I1
sssg5758
(dp7110
sg5760
(dp7111
VPetunia
p7112
g6581
sVHarry
p7113
(dp7114
g6491
I01
sg6492
I1
sssg5762
(dp7115
sg1993
(dp7116
VDumbledore
p7117
(dp7118
g6491
I01
sg6492
I1
sssg5765
(dp7119
sg2001
(dp7120
sg5768
(dp7121
sg5770
(dp7122
sg5772
(dp7123
sg5774
(dp7124
sg5776
(dp7125
VGryffindor
p7126
g6935
sVPotter
p7127
g7109
sVWeasley
p7128
g6615
sVHe'd
p7129
(dp7130
g6491
I00
sg6492
I1
ssVHarry
p7131
(dp7132
g6491
I00
sg6492
I1
ssVGeorge
p7133
g6590
ssg5778
(dp7134
sg5780
(dp7135
sg5782
(dp7136
sg5784
(dp7137
g5672
g6950
sVfinally
p7138
g6529
ssg2018
(dp7139
sg5787
(dp7140
sg5789
(dp7141
Vback
p7142
(dp7143
g6491
I00
sg6492
I1
sssg5791
(dp7144
sg2020
(dp7145
VMr.
p7146
g6909
sVSnape
p7147
(dp7148
g6491
I00
sg6492
I6
ssVcoldly
p7149
(dp7150
g6491
I00
sg6492
I1
ssg5947
(dp7151
g6491
I00
sg6492
I3
sssg5794
(dp7152
VHarry
p7153
(dp7154
g6491
I01
sg6492
I1
sssg5796
(dp7155
sg5798
(dp7156
g6328
(dp7157
g6491
I01
sg6492
I1
sssg5800
(dp7158
sg5802
(dp7159
g6036
(dp7160
g6491
I01
sg6492
I1
ssVback
p7161
(dp7162
g6491
I00
sg6492
I2
ssVapart
p7163
(dp7164
g6491
I01
sg6492
I2
sssg5804
(dp7165
Vnever
p7166
g6682
ssg5806
(dp7167
VDudley
p7168
g7018
sVHarry
p7169
(dp7170
g6491
I01
sg6492
I1
sssg5808
(dp7171
sg5810
(dp7172
sg5812
(dp7173
g5949
(dp7174
g6491
I01
sg6492
I1
sssg5814
(dp7175
sg5816
(dp7176
VPercy
p7177
g6762
ssg2138
(dp7178
sg5819
(dp7179
g2553
(dp7180
g6491
I01
sg6492
I12
ssg6479
(dp7181
g6491
I01
sg6492
I1
sssg2146
(dp7182
VQuirrell
p7183
(dp7184
g6491
I01
sg6492
I1
sssg5822
(dp7185
sg2149
(dp7186
sg2589
(dp7187
sg5826
(dp7188
g6110
(dp7189
g6491
I01
sg6492
I1
sssg2159
(dp7190
sg5829
(dp7191
VHermione
p7192
g6988
sVHarry
p7193
(dp7194
g6491
I01
sg6492
I1
sssg2729
(dp7195
sg5832
(dp7196
VWeasley
p7197
g6599
sVFred
p7198
(dp7199
g6491
I01
sg6492
I1
sssg2161
(dp7200
sg5835
(dp7201
sg5837
(dp7202
sg5839
(dp7203
sg5841
(dp7204
VMr.
p7205
g6911
sVHufflepuff
p7206
(dp7207
g6491
I00
sg6492
I1
ssg6227
(dp7208
g6491
I00
sg6492
I1
ssVOllivander
p7209
(dp7210
g6491
I00
sg6492
I1
sssg5843
(dp7211
sg5845
(dp7212
VVernon
p7213
g6844
ssg5847
(dp7214
sg2220
(dp7215
sg5850
(dp7216
VVernon
p7217
g6845
ssg5852
(dp7218
sg5854
(dp7219
VWood
p7220
(dp7221
g6491
I01
sg6492
I1
sssg5856
(dp7222
VRon
p7223
(dp7224
g6491
I01
sg6492
I2
sssg2227
(dp7225
sg5859
(dp7226
sg5861
(dp7227
sg30
(dp7228
sg5864
(dp7229
sg5866
(dp7230
sg5868
(dp7231
sg5870
(dp7232
sg5872
(dp7233
sg5874
(dp7234
sg2238
(dp7235
VQuirrell
p7236
(dp7237
g6491
I01
sg6492
I1
sssg5877
(dp7238
sg5879
(dp7239
sg5881
(dp7240
sg5883
(dp7241
sg5885
(dp7242
sg5887
(dp7243
g6157
(dp7244
g6491
I01
sg6492
I1
ssg6192
(dp7245
g6491
I01
sg6492
I1
ssVoften
p7246
(dp7247
g6491
I00
sg6492
I1
sssg5889
(dp7248
sg5891
(dp7249
g6164
(dp7250
g6491
I01
sg6492
I4
sssg5893
(dp7251
sg5895
(dp7252
sg2247
(dp7253
sg2249
(dp7254
VDumbledore
p7255
(dp7256
g6491
I01
sg6492
I2
ssVHarry
p7257
(dp7258
g6491
I00
sg6492
I1
sssg1312
(dp7259
sg2254
(dp7260
VDumbledore
p7261
(dp7262
g6491
I01
sg6492
I1
sssg5901
(dp7263
g5535
g6680
sg6215
(dp7264
g6491
I01
sg6492
I3
ssVreally
p7265
g7130
ssg2274
(dp7266
VHarry
p7267
(dp7268
g6491
I01
sg6492
I1
sssg5904
(dp7269
g7035
(dp7270
g6491
I00
sg6492
I1
ssg6053
(dp7271
g6491
I00
sg6492
I1
ssg6394
(dp7272
g6491
I01
sg6492
I2
sssg5906
(dp7273
sg2290
(dp7274
sg5909
(dp7275
g6032
(dp7276
g6491
I00
sg6492
I4
ssVback
p7277
(dp7278
g6491
I00
sg6492
I1
sssg5911
(dp7279
g5544
g6723
ssg5913
(dp7280
VRon
p7281
(dp7282
g6491
I00
sg6492
I1
ssVHarry
p7283
(dp7284
g6491
I01
sg6492
I2
sssg5915
(dp7285
g6241
(dp7286
g6491
I00
sg6492
I3
sssg5917
(dp7287
VRon
p7288
(dp7289
g6491
I01
sg6492
I1
sssg5919
(dp7290
sg5921
(dp7291
sg2308
(dp7292
VGreat
p7293
(dp7294
g6491
I01
sg6492
I17
sssg5924
(dp7295
sg5266
(dp7296
sg5927
(dp7297
sg5929
(dp7298
g5559
g6770
sVHagrid
p7299
g6736
ssg5931
(dp7300
sg5933
(dp7301
sg2337
(dp7302
sg2353
(dp7303
sg5937
(dp7304
g6060
(dp7305
g6491
I01
sg6492
I2
sssg5939
(dp7306
sg5941
(dp7307
VHagrid
p7308
g6729
ssg2287
(dp7309
VHermione
p7310
g6991
ssg2358
(dp7311
VMr.
p7312
g6916
sg5841
g7210
sg5617
g6871
ssg5945
(dp7313
sg5947
(dp7314
VFilch
p7315
g7151
ssg5949
(dp7316
g5812
g7174
ssg5951
(dp7317
sg5953
(dp7318
VRon
p7319
(dp7320
g6491
I01
sg6492
I1
sssg5955
(dp7321
g5636
g6896
ssg5957
(dp7322
Vaway
p7323
(dp7324
g6491
I00
sg6492
I1
sssg5959
(dp7325
sg5961
(dp7326
g6418
(dp7327
g6491
I01
sg6492
I1
ssVMalfoy
p7328
(dp7329
g6491
I00
sg6492
I1
sssg5963
(dp7330
sg5965
(dp7331
VSnape
p7332
(dp7333
g6491
I01
sg6492
I1
sssg5967
(dp7334
g6587
g7086
sg5832
g7199
sg216
g6604
sVGeorge
p7335
g6593
ssg5969
(dp7336
sg5971
(dp7337
sg5973
(dp7338
Vnot
p7339
g7069
sg5597
g6818
sg5996
(dp7340
g6491
I00
sg6492
I1
sssg5975
(dp7341
sg5977
(dp7342
g6225
(dp7343
g6491
I01
sg6492
I2
sssg5979
(dp7344
sg2504
(dp7345
sg5982
(dp7346
Vnever
p7347
g6681
ssg5984
(dp7348
sg5986
(dp7349
sg5988
(dp7350
VPercy
p7351
g6767
sVVernon
p7352
g6843
sVFlint
p7353
(dp7354
g6491
I00
sg6492
I1
ssVHarry
p7355
(dp7356
g6491
I00
sg6492
I1
sssg2851
(dp7357
sg2553
(dp7358
g5819
g7180
sVMr.
p7359
g6913
ssg5992
(dp7360
sg5994
(dp7361
sg5996
(dp7362
VHogwarts
p7363
g7340
sVBludgers
p7364
(dp7365
g6491
I00
sg6492
I1
ssg6458
(dp7366
g6491
I00
sg6492
I1
ssVHermione
p7367
g6990
ssg5998
(dp7368
g5622
g6877
ssg1996
(dp7369
VHarry
p7370
(dp7371
g6491
I01
sg6492
I3
sssg6001
(dp7372
sg6003
(dp7373
g6354
(dp7374
g6491
I00
sg6492
I1
ssVback
p7375
(dp7376
g6491
I00
sg6492
I1
sssg2987
(dp7377
sg2583
(dp7378
VHagrid
p7379
g6741
ssg6007
(dp7380
sg2586
(dp7381
VRon
p7382
(dp7383
g6491
I01
sg6492
I1
sssg6010
(dp7384
sg6012
(dp7385
sg6014
(dp7386
sg6016
(dp7387
g6058
(dp7388
g6491
I01
sg6492
I7
ssVCrabbe
p7389
(dp7390
g6491
I00
sg6492
I1
sssg6018
(dp7391
VProfessor
p7392
g6678
sVMcGonagall
p7393
g7049
ssg2992
(dp7394
sg6021
(dp7395
g5581
g6805
ssg2597
(dp7396
VHermione
p7397
g6972
sVHarry
p7398
(dp7399
g6491
I01
sg6492
I1
sssg6024
(dp7400
sg6026
(dp7401
sg6028
(dp7402
VHagrid
p7403
g6718
sVHarry
p7404
(dp7405
g6491
I01
sg6492
I1
sssg6030
(dp7406
sg6032
(dp7407
g5909
g7276
sg7277
(dp7408
g6491
I00
sg6492
I1
sssg6034
(dp7409
g6166
(dp7410
g6491
I00
sg6492
I1
ssg5957
g7324
sVHarry
p7411
(dp7412
g6491
I00
sg6492
I1
sssg6036
(dp7413
Vonly
p7414
g6826
sg5802
g7160
ssg2708
(dp7415
sg6039
(dp7416
VHagrid
p7417
g6728
ssg6041
(dp7418
sg6043
(dp7419
sg6045
(dp7420
sg6047
(dp7421
sg2711
(dp7422
VPercy
p7423
g6765
ssg6050
(dp7424
sg943
(dp7425
sg6053
(dp7426
g5904
g7271
sg5435
g6508
sVback
p7427
(dp7428
g6491
I00
sg6492
I1
sssg6055
(dp7429
sg2998
(dp7430
VHermione
p7431
g6970
ssg6058
(dp7432
Vcertainly
p7433
g6506
sVRon
p7434
(dp7435
g6491
I00
sg6492
I1
ssVjust
p7436
(dp7437
g6491
I00
sg6492
I1
ssVFang
p7438
g7329
sVMr.
p7439
g6908
sVhere
p7440
g6689
sVquickly
p7441
(dp7442
g6491
I00
sg6492
I3
ssVonly
p7443
g6828
sVSnape
p7444
(dp7445
g6491
I00
sg6492
I1
ssVnow
p7446
g7084
sg6016
g7388
sVCrabbe
p7447
(dp7448
g6491
I00
sg6492
I4
sssg6060
(dp7449
g5937
g7305
ssg6062
(dp7450
sg6064
(dp7451
sg6066
(dp7452
g6365
(dp7453
g6491
I01
sg6492
I1
sssg2720
(dp7454
sg6069
(dp7455
VRon
p7456
(dp7457
g6491
I01
sg6492
I1
ssVHarry
p7458
(dp7459
g6491
I01
sg6492
I1
sssg6071
(dp7460
VPercy
p7461
g6761
ssg2738
(dp7462
sg6074
(dp7463
sg2741
(dp7464
VMr.
p7465
g6910
sVHagrid
p7466
g6743
sVDursley
p7467
(dp7468
g6491
I00
sg6492
I2
ssVRon
p7469
(dp7470
g6491
I00
sg6492
I1
ssVHarry
p7471
(dp7472
g6491
I00
sg6492
I2
sssg2749
(dp7473
sg6078
(dp7474
g6397
(dp7475
g6491
I00
sg6492
I1
ssg6114
(dp7476
g6491
I00
sg6492
I1
ssg6237
(dp7477
g6491
I00
sg6492
I1
ssg5530
g6657
sg3963
(dp7478
g6491
I01
sg6492
I1
sssg6080
(dp7479
sg6082
(dp7480
Vnot
p7481
g7072
sVvery
p7482
g6538
ssg6084
(dp7483
g6316
(dp7484
g6491
I01
sg6492
I2
ssVHarry
p7485
(dp7486
g6491
I00
sg6492
I1
sssg6086
(dp7487
VNeville
p7488
g6653
ssg6088
(dp7489
sg2714
(dp7490
sg6091
(dp7491
sg6093
(dp7492
sg6095
(dp7493
VMr.
p7494
g6903
ssg6097
(dp7495
sg6099
(dp7496
sg6101
(dp7497
sg6103
(dp7498
sg5401
(dp7499
sg6106
(dp7500
sg6108
(dp7501
VHagrid
p7502
g6717
ssg6110
(dp7503
g5826
g7189
ssg6112
(dp7504
VGreat
p7505
(dp7506
g6491
I01
sg6492
I1
ssg6402
(dp7507
g6491
I01
sg6492
I1
sssg6114
(dp7508
g6161
(dp7509
g6491
I00
sg6492
I1
ssVtoo
p7510
g7207
sg6078
g7476
ssg6116
(dp7511
VLily
p7512
(dp7513
g6491
I00
sg6492
I1
ssg6375
(dp7514
g6491
I01
sg6492
I1
ssg5756
g7108
ssg6118
(dp7515
g6454
(dp7516
g6491
I01
sg6492
I1
sssg6120
(dp7517
sg6122
(dp7518
sg6124
(dp7519
Vback
p7520
(dp7521
g6491
I00
sg6492
I1
sssg2838
(dp7522
VHagrid
p7523
g6725
sVDudley
p7524
g7015
sVMalfoy
p7525
g7442
sVHarry
p7526
(dp7527
g6491
I01
sg6492
I5
sssg2854
(dp7528
VHarry
p7529
(dp7530
g6491
I01
sg6492
I1
sssg6128
(dp7531
sg6130
(dp7532
VPetunia
p7533
g6582
ssg6132
(dp7534
g6473
(dp7535
g6491
I01
sg6492
I1
sssg6134
(dp7536
sg6136
(dp7537
VHarry
p7538
(dp7539
g6491
I01
sg6492
I2
sssg6138
(dp7540
sg2857
(dp7541
Vagain
p7542
(dp7543
g6491
I00
sg6492
I1
ssg1993
g7118
sVProfessor
p7544
g6676
sVMcGonagall
p7545
g7041
sg2249
g7256
sg5537
g6685
sg2254
g7262
sVdown
p7546
(dp7547
g6491
I00
sg6492
I1
ssg5444
g6523
sVquietly
p7548
(dp7549
g6491
I00
sg6492
I2
ssVnow
p7550
g7090
sg6171
(dp7551
g6491
I01
sg6492
I10
ssg5650
g6928
ssg6141
(dp7552
sg6143
(dp7553
g6277
(dp7554
g6491
I01
sg6492
I1
sssg6145
(dp7555
sg2989
(dp7556
sg2994
(dp7557
sg2327
(dp7558
sg6150
(dp7559
sg6152
(dp7560
sg3008
(dp7561
sg6155
(dp7562
g5704
g7005
ssg6157
(dp7563
VHagrid
p7564
g6727
sVDursleys
p7565
g7244
ssg6159
(dp7566
sg6161
(dp7567
VHufflepuff
p7568
g7509
ssg1274
(dp7569
sg6164
(dp7570
g5854
g7221
sg6381
(dp7571
g6491
I01
sg6492
I1
ssg5891
g7250
sVQuidditch
p7572
g6895
ssg6166
(dp7573
Vaway
p7574
g7410
sVever
p7575
g7365
sVChaser
p7576
g7270
sg5720
g7036
ssg3094
(dp7577
sg6169
(dp7578
sg6171
(dp7579
g5740
g7065
sg2857
g7551
ssg6173
(dp7580
sg6175
(dp7581
sg3115
(dp7582
Vjust
p7583
(dp7584
g6491
I00
sg6492
I1
ssg6254
(dp7585
g6491
I01
sg6492
I1
ssVsuddenly
p7586
g6792
sValways
p7587
g7096
sVProfessor
p7588
g6671
sVMcGonagall
p7589
g7046
sVMalfoy
p7590
g7445
sVFilch
p7591
g7148
sg5965
g7333
sg6307
(dp7592
g6491
I00
sg6492
I1
sssg6178
(dp7593
sg6180
(dp7594
sg6182
(dp7595
sg6184
(dp7596
sg6186
(dp7597
sg6188
(dp7598
sg6190
(dp7599
sg6192
(dp7600
VDursleys
p7601
g7245
ssg6194
(dp7602
sg6196
(dp7603
g5569
g6779
ssg2800
(dp7604
sg6199
(dp7605
VVernon
p7606
g6834
sVHarry
p7607
(dp7608
g6491
I01
sg6492
I1
sssg6201
(dp7609
sg6203
(dp7610
VHarry
p7611
(dp7612
g6491
I01
sg6492
I1
sssg6205
(dp7613
sg6207
(dp7614
sg6209
(dp7615
sg6211
(dp7616
sg6213
(dp7617
sg6215
(dp7618
VHe'd
p7619
g7264
sVSnape
p7620
g7584
sVMalfoy
p7621
g7437
sVRon
p7622
(dp7623
g6491
I00
sg6492
I1
sssg6217
(dp7624
VProfessor
p7625
g6666
sVMcGonagall
p7626
g7039
sVHagrid
p7627
g6712
ssg6219
(dp7628
VHarry
p7629
(dp7630
g6491
I01
sg6492
I2
sssg6221
(dp7631
sg6223
(dp7632
g6410
(dp7633
g6491
I01
sg6492
I3
sssg6225
(dp7634
g5977
g7343
ssg6227
(dp7635
Vtoo
p7636
g7208
ssg3286
(dp7637
sg6230
(dp7638
sg6232
(dp7639
sg6234
(dp7640
sg3288
(dp7641
sg6237
(dp7642
VCaptain
p7643
(dp7644
g6491
I01
sg6492
I1
ssVnearly
p7645
g7354
sVSlytherin
p7646
g7477
ssg6239
(dp7647
VPetunia
p7648
g6583
ssg6241
(dp7649
g5915
g7286
ssg6243
(dp7650
g5557
g6759
ssg3309
(dp7651
VHagrid
p7652
g6733
sVQuirrell
p7653
(dp7654
g6491
I00
sg6492
I1
ssVRon
p7655
(dp7656
g6491
I00
sg6492
I1
sssg6246
(dp7657
sg6248
(dp7658
g5756
g7104
ssg6250
(dp7659
sg6252
(dp7660
sg6254
(dp7661
VSnape
p7662
g7585
ssg3338
(dp7663
sg6257
(dp7664
g6469
(dp7665
g6491
I01
sg6492
I2
ssVDudley
p7666
g7023
ssg6259
(dp7667
g6283
(dp7668
g6491
I01
sg6492
I2
ssVStone
p7669
g7164
ssg6261
(dp7670
sg6263
(dp7671
sg6265
(dp7672
sg3070
(dp7673
sg6268
(dp7674
sg3368
(dp7675
sg6271
(dp7676
sg6273
(dp7677
sg6275
(dp7678
g5458
g6551
ssg6277
(dp7679
g6143
g7554
ssg6279
(dp7680
VHagrid
p7681
g6744
ssg6281
(dp7682
sg6283
(dp7683
Vonly
p7684
g6821
sg6259
g7668
ssg6285
(dp7685
g5679
g6967
ssg6287
(dp7686
g5482
g6574
sg5887
g7247
sVHarry
p7687
(dp7688
g6491
I01
sg6492
I2
sssg4033
(dp7689
VHagrid
p7690
g6713
sVRon
p7691
(dp7692
g6491
I01
sg6492
I1
sssg6290
(dp7693
g5542
g6703
sVJohnson
p7694
g7428
sVNimbus
p7695
g7408
sVThousand
p7696
g7278
sg5789
g7143
sg6124
g7521
sg6003
g7376
sVStone
p7697
g7162
sg5520
g6643
ssg3391
(dp7698
Vquietly
p7699
(dp7700
g6491
I00
sg6492
I1
ssg2146
g7184
sVcasually
p7701
g7654
sg5548
g6753
sVcoolly
p7702
g7008
sVProfessor
p7703
g6670
sg2238
g7237
ssg6293
(dp7704
g6330
(dp7705
g6491
I01
sg6492
I2
sssg3495
(dp7706
VNeville
p7707
g6647
sVMr.
p7708
g6915
sVhere
p7709
g6687
ssg6296
(dp7710
g5505
g6631
sVDraco
p7711
g7390
sVMalfoy
p7712
g7448
ssg6298
(dp7713
sg6300
(dp7714
sg6302
(dp7715
g6945
g6519
sg5666
g6946
ssg6304
(dp7716
sg426
(dp7717
sg6307
(dp7718
VSnape
p7719
g7592
ssg6309
(dp7720
sg6311
(dp7721
sg6313
(dp7722
sg3533
(dp7723
sg6316
(dp7724
Vsafely
p7725
g7484
ssg6318
(dp7726
sg6320
(dp7727
g427
g6659
ssg6322
(dp7728
sg3571
(dp7729
VNeville
p7730
g6650
ssg3574
(dp7731
VFilch
p7732
g7150
sVProfessor
p7733
g6677
sVMcGonagall
p7734
g7048
sVHarry
p7735
(dp7736
g6491
I00
sg6492
I1
sssg6326
(dp7737
sg6328
(dp7738
g5798
g7157
ssg6330
(dp7739
g6293
g7705
ssg3579
(dp7740
sg6333
(dp7741
Vjust
p7742
g7623
sVsuddenly
p7743
g6785
sg5362
(dp7744
g6491
I01
sg6492
I1
ssVproudly
p7745
g7692
sVWeasley
p7746
g6601
sVdown
p7747
(dp7748
g6491
I00
sg6492
I1
ssg5953
g7320
sVsleepily
p7749
g7028
sg6431
(dp7750
g6491
I00
sg6492
I1
ssVonly
p7751
g6825
sVeagerly
p7752
g7282
sg5917
g7289
sVfinally
p7753
g6521
sg2586
g7383
sg5603
g6849
sVinstead
p7754
g6952
sVnervously
p7755
(dp7756
g6491
I00
sg6492
I1
ssVfuriously
p7757
g6962
sg3309
g7656
sg5856
g7224
sVMalfoy
p7758
g7435
sVdarkly
p7759
g6695
sVHermione
p7760
g6974
sVHarry
p7761
(dp7762
g6491
I00
sg6492
I38
ssg3383
g7102
sg6069
g7457
sVloudly
p7763
g7470
ssg6335
(dp7764
sg6337
(dp7765
sg6339
(dp7766
VGreat
p7767
(dp7768
g6491
I01
sg6492
I1
sssg3963
(dp7769
g6237
g7644
sVSlytherin
p7770
g7478
ssg6342
(dp7771
sg6344
(dp7772
VHagrid
p7773
g6705
ssg3967
(dp7774
VDumbledore
p7775
g7549
sVHagrid
p7776
g6706
sVQuirrell
p7777
g7700
sVHarry
p7778
(dp7779
g6491
I00
sg6492
I2
sssg6347
(dp7780
VMr.
p7781
g6917
ssg6349
(dp7782
VQuidditch
p7783
g6891
ssg6351
(dp7784
sg3975
(dp7785
sg6354
(dp7786
VDumbledore
p7787
g7547
sVHagrid
p7788
g6715
sVRon
p7789
g7748
sg6003
g7374
ssg6356
(dp7790
VGryffindor
p7791
g6938
ssg3987
(dp7792
sg6359
(dp7793
sg6361
(dp7794
sg6363
(dp7795
sg6365
(dp7796
g6066
g7453
ssg6367
(dp7797
VQuidditch
p7798
g6892
ssg6369
(dp7799
sg6371
(dp7800
sg6373
(dp7801
Vsuddenly
p7802
g6788
ssg6375
(dp7803
VLily
p7804
g7514
ssg6377
(dp7805
sg6379
(dp7806
sg6381
(dp7807
VWood
p7808
g7571
ssg4042
(dp7809
sg6384
(dp7810
g6408
(dp7811
g6491
I01
sg6492
I1
ssVquietly
p7812
g7779
sg1996
g7371
sVoften
p7813
g7688
sVsuddenly
p7814
g6796
sVgently
p7815
g7258
sg5497
g6622
sg5585
g6809
sVflatly
p7816
g7405
sg2274
g7268
sVthoughtfully
p7817
g7194
sg5716
g7031
sg5806
g7170
sg5379
g7132
sVfinally
p7818
g6527
sVdarkly
p7819
g6697
sVSeamus
p7820
g6880
sg6034
g7412
sg6219
g7630
sg5913
g7284
sg6467
(dp7821
g6491
I01
sg6492
I1
ssg2854
g7530
sVquickly
p7822
g7527
sg5601
g6839
sg5794
g7154
sg6136
g7539
sg2597
g7399
sVthen
p7823
g7056
sg6386
(dp7824
g6491
I00
sg6492
I1
ssg1455
g6964
sg5706
g7010
sg997
g6802
sVnearly
p7825
g7356
sVsharply
p7826
g6873
sg7107
g7074
sVnow
p7827
g7088
sVDudley
p7828
g7020
sVcoldly
p7829
g7736
sg5469
g6562
sVHagrid
p7830
g6738
sVshortly
p7831
g7608
sVRon
p7832
g7762
sg2412
g6831
sg6069
g7459
sVPotter
p7833
g7106
sg6203
g7612
sg2003
g6570
sVfrantically
p7834
g7114
sVloudly
p7835
g7472
sg6084
g7486
sVHermione
p7836
g6980
ssg6386
(dp7837
VHermione
p7838
g6987
sVRon
p7839
g7756
sVHarry
p7840
g7824
ssg6388
(dp7841
sg6390
(dp7842
sg6392
(dp7843
sg6394
(dp7844
VChaser
p7845
g7272
ssg86
(dp7846
sg6397
(dp7847
VGryffindor
p7848
g6932
sVSlytherin
p7849
g7475
ssg6399
(dp7850
sg5252
(dp7851
sg6402
(dp7852
g6112
g7507
ssg6404
(dp7853
sg6406
(dp7854
sg6408
(dp7855
VHarry
p7856
g7811
ssg6410
(dp7857
g6223
g7633
ssg5282
(dp7858
g6429
(dp7859
g6491
I01
sg6492
I1
ssg1883
g7098
sVVernon
p7860
g6836
sg5710
g7014
sg5642
g6901
sg2741
g7468
ssg5362
(dp7861
VHagrid
p7862
g6710
sVRon
p7863
g7744
ssg6414
(dp7864
g5423
g6495
ssg6416
(dp7865
sg6418
(dp7866
g5961
g7327
ssg6420
(dp7867
VHagrid
p7868
g6740
ssg6422
(dp7869
sg6424
(dp7870
sg5367
(dp7871
VHagrid
p7872
g6720
ssg6427
(dp7873
VWeasley
p7874
g6614
ssg6429
(dp7875
VDursley
p7876
g7859
ssg6431
(dp7877
g5605
g6852
sVDumbledore
p7878
g7543
sVHagrid
p7879
g6722
sVVoldemort
p7880
g6547
sg6333
g7750
ssg6433
(dp7881
sg6435
(dp7882
sg6437
(dp7883
sg6439
(dp7884
sg3269
(dp7885
sg6442
(dp7886
sg6444
(dp7887
sg3382
(dp7888
sg6447
(dp7889
sg3356
(dp7890
sg6450
(dp7891
sg6452
(dp7892
sg6454
(dp7893
g6118
g7516
sg5511
g6637
sg5644
g6920
sg6112
g7506
sg2308
g7294
sg6339
g7768
ssg6456
(dp7894
VProfessor
p7895
g6667
sVMcGonagall
p7896
g7042
sVHermione
p7897
g6982
ssg6458
(dp7898
Vever
p7899
g7366
ssg6460
(dp7900
g5648
g6925
ssg6462
(dp7901
sg6464
(dp7902
sg3989
(dp7903
VProfessor
p7904
g6668
sVMcGonagall
p7905
g7044
ssg6467
(dp7906
VHarry
p7907
g7821
ssg6469
(dp7908
g6257
g7665
ssg6471
(dp7909
sg6473
(dp7910
g6132
g7535
ssg6475
(dp7911
g5454
g6539
ssg6477
(dp7912
sg6479
(dp7913
VNicolas
p7914
g7181
sssS'graph'
p7915
(dp7916
sS'adjlist_dict_factory'
p7917
g6484
sS'adj'
p7918
g6487
sbg5406
(g5407
g5411
Ntp7919
Rp7920
(dp7921
g5415
(dp7922
VJim
p7923
(dp7924
sg4
(dp7925
sg5423
(dp7926
sg5427
(dp7927
sg6
(dp7928
sg25
(dp7929
sg5431
(dp7930
sg5433
(dp7931
sVAngelina
p7932
(dp7933
sg5437
(dp7934
sg32
(dp7935
sg48
(dp7936
sg5442
(dp7937
sg5444
(dp7938
sg5446
(dp7939
sg5448
(dp7940
sg5452
(dp7941
sg7482
(dp7942
sg51
(dp7943
sg5458
(dp7944
sg113
(dp7945
sg5462
(dp7946
sg5464
(dp7947
sg6344
(dp7948
sg1069
(dp7949
sg5467
(dp7950
sVWeasleys
p7951
(dp7952
sg5471
(dp7953
sg5473
(dp7954
sg5475
(dp7955
sg5778
(dp7956
sg5478
(dp7957
sg5480
(dp7958
sg147
(dp7959
sg183
(dp7960
sg213
(dp7961
sg6408
(dp7962
sg5487
(dp7963
sg5953
(dp7964
sg5491
(dp7965
sg216
(dp7966
sg253
(dp7967
sg5495
(dp7968
sVsecond
p7969
(dp7970
sg5499
(dp7971
sg5501
(dp7972
sg5503
(dp7973
sg260
(dp7974
sg309
(dp7975
sg311
(dp7976
sg5509
(dp7977
sg5511
(dp7978
sg5513
(dp7979
sg5515
(dp7980
sg5518
(dp7981
sg5996
(dp7982
sg5522
(dp7983
sg5524
(dp7984
sg315
(dp7985
sg5528
(dp7986
sg6326
(dp7987
sg427
(dp7988
sg451
(dp7989
sg5535
(dp7990
sg5537
(dp7991
sg5539
(dp7992
sg5806
(dp7993
sVBludger
p7994
(dp7995
sg559
(dp7996
sg893
(dp7997
sg5548
(dp7998
sg5550
(dp7999
sg5552
(dp8000
sg1309
(dp8001
sg5555
(dp8002
sg910
(dp8003
sg944
(dp8004
sg5561
(dp8005
sg5563
(dp8006
sg5565
(dp8007
sg957
(dp8008
sg972
(dp8009
sg2172
(dp8010
sg5571
(dp8011
sg979
(dp8012
sg5574
(dp8013
sg5576
(dp8014
sg997
(dp8015
sg5579
(dp8016
sg1000
(dp8017
sg5583
(dp8018
sg5585
(dp8019
sg1008
(dp8020
sg5588
(dp8021
sg1012
(dp8022
sg1074
(dp8023
sg1107
(dp8024
sg5593
(dp8025
sg5595
(dp8026
sg5911
(dp8027
sVExpress
p8028
(dp8029
sg5971
(dp8030
sg1109
(dp8031
sg1112
(dp8032
sg5603
(dp8033
sg1178
(dp8034
sVFirst
p8035
(dp8036
sg1184
(dp8037
sg5610
(dp8038
sg1192
(dp8039
sg1214
(dp8040
sg5614
(dp8041
sg1220
(dp8042
sg5617
(dp8043
sg5619
(dp8044
sg1242
(dp8045
sg5624
(dp8046
sg1274
(dp8047
sg5626
(dp8048
sg5814
(dp8049
sg5630
(dp8050
sg5634
(dp8051
sg1279
(dp8052
sg1306
(dp8053
sg5640
(dp8054
sg1313
(dp8055
sg1363
(dp8056
sg5646
(dp8057
sg1372
(dp8058
sg5650
(dp8059
sg5652
(dp8060
sg1391
(dp8061
sg5658
(dp8062
sg5660
(dp8063
sg5662
(dp8064
sg5664
(dp8065
sg5666
(dp8066
sVAlbus
p8067
(dp8068
sg5670
(dp8069
sg5672
(dp8070
sg5674
(dp8071
sg1455
(dp8072
sg5677
(dp8073
sg5679
(dp8074
sg5251
(dp8075
sg1463
(dp8076
sg5684
(dp8077
sg5686
(dp8078
sg1684
(dp8079
sg5690
(dp8080
sg5692
(dp8081
sg5694
(dp8082
sg5696
(dp8083
sg5698
(dp8084
sVNicolas
p8085
(dp8086
sg5702
(dp8087
sg5704
(dp8088
sg5969
(dp8089
sg5708
(dp8090
sg1698
(dp8091
sg5712
(dp8092
sg5714
(dp8093
sg5716
(dp8094
sg5718
(dp8095
sg6047
(dp8096
sg5722
(dp8097
sg1822
(dp8098
sg5725
(dp8099
sg1879
(dp8100
sg6178
(dp8101
sg5729
(dp8102
sVgood
p8103
(dp8104
sg1881
(dp8105
sg5736
(dp8106
sg906
(dp8107
sg5740
(dp8108
sg5742
(dp8109
sg6460
(dp8110
sg5744
(dp8111
sg5746
(dp8112
sg5748
(dp8113
sg5750
(dp8114
sg5752
(dp8115
sg1883
(dp8116
sg5417
(dp8117
sg1891
(dp8118
sg5758
(dp8119
sg5760
(dp8120
sg5762
(dp8121
sg1993
(dp8122
sg1996
(dp8123
sg5765
(dp8124
sg2001
(dp8125
sg6356
(dp8126
sg5770
(dp8127
sg5772
(dp8128
sg5774
(dp8129
sg6184
(dp8130
sg2003
(dp8131
sg5780
(dp8132
sg5782
(dp8133
sg2006
(dp8134
sg2018
(dp8135
sg5787
(dp8136
sVWelcome
p8137
(dp8138
sg5791
(dp8139
sg2020
(dp8140
sg5794
(dp8141
sg5796
(dp8142
sg5798
(dp8143
sg5800
(dp8144
sg6386
(dp8145
sg2081
(dp8146
sg2104
(dp8147
sg5808
(dp8148
sg5810
(dp8149
sg2109
(dp8150
sg5628
(dp8151
sg5816
(dp8152
sg2138
(dp8153
sg5700
(dp8154
sg2146
(dp8155
sg5822
(dp8156
sg2149
(dp8157
sg6021
(dp8158
sg2154
(dp8159
sg2159
(dp8160
sg5829
(dp8161
sg2729
(dp8162
sg5832
(dp8163
sg2161
(dp8164
sg6473
(dp8165
sg2165
(dp8166
sg5837
(dp8167
sg5839
(dp8168
sg2220
(dp8169
sg5843
(dp8170
sg5845
(dp8171
sg5847
(dp8172
sg5841
(dp8173
sg5850
(dp8174
sg5852
(dp8175
sg5854
(dp8176
sg5856
(dp8177
sg2227
(dp8178
sg5859
(dp8179
sg5861
(dp8180
sg30
(dp8181
sg5864
(dp8182
sg5866
(dp8183
sg5868
(dp8184
sg5870
(dp8185
sg5872
(dp8186
sg2238
(dp8187
sg5877
(dp8188
sg5879
(dp8189
sg5881
(dp8190
sg5883
(dp8191
sg5885
(dp8192
sVDursleys
p8193
(dp8194
sg5889
(dp8195
sg2241
(dp8196
sg5893
(dp8197
sg5895
(dp8198
sg2247
(dp8199
sg2249
(dp8200
sg1312
(dp8201
sg2254
(dp8202
sg2257
(dp8203
sg2274
(dp8204
sg2277
(dp8205
sg2287
(dp8206
sg5906
(dp8207
sg2290
(dp8208
sVThousand
p8209
(dp8210
sg6219
(dp8211
sg5913
(dp8212
sg2294
(dp8213
sg5917
(dp8214
sg5919
(dp8215
sg5921
(dp8216
sg2308
(dp8217
sg5924
(dp8218
sg5266
(dp8219
sg5927
(dp8220
sg5929
(dp8221
sg5931
(dp8222
sg5933
(dp8223
sg2337
(dp8224
sg2353
(dp8225
sg5937
(dp8226
sg5939
(dp8227
sg5941
(dp8228
sg6351
(dp8229
sg2358
(dp8230
sg5945
(dp8231
sg6036
(dp8232
sg5439
(dp8233
sg5949
(dp8234
sg5489
(dp8235
sg2373
(dp8236
sg2386
(dp8237
sg5959
(dp8238
sg2392
(dp8239
sg5963
(dp8240
sg5965
(dp8241
sg5590
(dp8242
sg5706
(dp8243
sg2412
(dp8244
sg2422
(dp8245
sg5975
(dp8246
sg2487
(dp8247
sg5979
(dp8248
sg2504
(dp8249
sg2529
(dp8250
sg5984
(dp8251
sg2542
(dp8252
sg5988
(dp8253
sg2851
(dp8254
sg2553
(dp8255
sg5994
(dp8256
sVPut-Outer
p8257
(dp8258
sg1265
(dp8259
sg6394
(dp8260
sg6001
(dp8261
sVAlley
p8262
(dp8263
sg2987
(dp8264
sg2583
(dp8265
sg6007
(dp8266
sg2586
(dp8267
sg6010
(dp8268
sg6012
(dp8269
sVDraco
p8270
(dp8271
sg6018
(dp8272
sg2992
(dp8273
sg2589
(dp8274
sg2597
(dp8275
sg6399
(dp8276
sg6026
(dp8277
sg2600
(dp8278
sg6028
(dp8279
sg6030
(dp8280
sg6014
(dp8281
sg6034
(dp8282
sg5530
(dp8283
sg2708
(dp8284
sg6039
(dp8285
sg6041
(dp8286
sg6043
(dp8287
sg6045
(dp8288
sVPucey
p8289
(dp8290
sg2711
(dp8291
sg6050
(dp8292
sg943
(dp8293
sg6053
(dp8294
sg6055
(dp8295
sg5632
(dp8296
sg1070
(dp8297
sg2714
(dp8298
sg6062
(dp8299
sg6064
(dp8300
sg6066
(dp8301
sg2720
(dp8302
sg6069
(dp8303
sg6071
(dp8304
sg2738
(dp8305
sg6074
(dp8306
sg2741
(dp8307
sg2749
(dp8308
sg2752
(dp8309
sg6080
(dp8310
sg2800
(dp8311
sg6084
(dp8312
sg6086
(dp8313
sg6088
(dp8314
sg6091
(dp8315
sg6093
(dp8316
sg6095
(dp8317
sg6097
(dp8318
sg6099
(dp8319
sg6101
(dp8320
sg6103
(dp8321
sg6106
(dp8322
sg6108
(dp8323
sg6110
(dp8324
sg6112
(dp8325
sg2803
(dp8326
sg2821
(dp8327
sg6118
(dp8328
sg6120
(dp8329
sg6122
(dp8330
sg2829
(dp8331
sg2838
(dp8332
sg2854
(dp8333
sg6128
(dp8334
sg6130
(dp8335
sVStick
p8336
(dp8337
sg6134
(dp8338
sg6136
(dp8339
sg6138
(dp8340
sg2857
(dp8341
sg6141
(dp8342
sg2984
(dp8343
sg6145
(dp8344
sg2989
(dp8345
sg2994
(dp8346
sg2327
(dp8347
sg6150
(dp8348
sg2998
(dp8349
sg6152
(dp8350
sg3008
(dp8351
sg3010
(dp8352
sg6157
(dp8353
sg6159
(dp8354
sg3015
(dp8355
sg3019
(dp8356
sg3022
(dp8357
sg3071
(dp8358
sg3094
(dp8359
sg6169
(dp8360
sg3096
(dp8361
sg5668
(dp8362
sg6173
(dp8363
sg6175
(dp8364
sg3115
(dp8365
sg3267
(dp8366
sg6180
(dp8367
sg6182
(dp8368
sg5986
(dp8369
sg6186
(dp8370
sg6188
(dp8371
sg6190
(dp8372
sg6192
(dp8373
sg6194
(dp8374
sg5835
(dp8375
sVYer
p8376
(dp8377
sg6199
(dp8378
sg6201
(dp8379
sg6203
(dp8380
sg6205
(dp8381
sg6207
(dp8382
sg6209
(dp8383
sg6211
(dp8384
sg3269
(dp8385
sg6215
(dp8386
sg6217
(dp8387
sg5992
(dp8388
sg6221
(dp8389
sg6223
(dp8390
sg6225
(dp8391
sg3273
(dp8392
sg3286
(dp8393
sg6230
(dp8394
sg6232
(dp8395
sg6234
(dp8396
sg3288
(dp8397
sg3293
(dp8398
sg6239
(dp8399
sVRonan
p8400
(dp8401
sg6243
(dp8402
sg3309
(dp8403
sg6246
(dp8404
sg1987
(dp8405
sg3382
(dp8406
sg6252
(dp8407
sg6254
(dp8408
sg3338
(dp8409
sg3344
(dp8410
sg6259
(dp8411
sg6261
(dp8412
sg6263
(dp8413
sg6447
(dp8414
sg6265
(dp8415
sg3356
(dp8416
sg6268
(dp8417
sg3368
(dp8418
sg6271
(dp8419
sg6452
(dp8420
sg6335
(dp8421
sg3383
(dp8422
sVRubeus
p8423
(dp8424
sg6281
(dp8425
sg5450
(dp8426
sg3386
(dp8427
sg6287
(dp8428
sg6379
(dp8429
sg6290
(dp8430
sg3391
(dp8431
sg3487
(dp8432
sg3495
(dp8433
sg286
(dp8434
sg6298
(dp8435
sg6300
(dp8436
sg3506
(dp8437
sg6304
(dp8438
sg426
(dp8439
sg3527
(dp8440
sg6309
(dp8441
sg6311
(dp8442
sg6313
(dp8443
sg3533
(dp8444
sg3535
(dp8445
sg6318
(dp8446
sg3565
(dp8447
sg6322
(dp8448
sg3571
(dp8449
sg3574
(dp8450
sg5607
(dp8451
sg6330
(dp8452
sg3579
(dp8453
sg3583
(dp8454
sVFine
p8455
(dp8456
sg6337
(dp8457
sg6277
(dp8458
sg6339
(dp8459
sg3963
(dp8460
sg6342
(dp8461
sVGryffindors
p8462
(dp8463
sg3967
(dp8464
sg5425
(dp8465
sg6349
(dp8466
sg3975
(dp8467
sg6714
(dp8468
sg5768
(dp8469
sg3987
(dp8470
sg6359
(dp8471
sg3989
(dp8472
sg6363
(dp8473
sVKeys
p8474
(dp8475
sg6024
(dp8476
sg6369
(dp8477
sg6371
(dp8478
sg4013
(dp8479
sg4033
(dp8480
sg6375
(dp8481
sg6377
(dp8482
sg6367
(dp8483
sg6381
(dp8484
sg4042
(dp8485
sg4044
(dp8486
sg5951
(dp8487
sg6388
(dp8488
sg6390
(dp8489
sg6392
(dp8490
sg5656
(dp8491
sg86
(dp8492
sg6397
(dp8493
sg5874
(dp8494
sg5252
(dp8495
sVBritain
p8496
(dp8497
sg6404
(dp8498
sg6406
(dp8499
sg5731
(dp8500
sg5267
(dp8501
sg5282
(dp8502
sg5362
(dp8503
sVCross
p8504
(dp8505
sg6416
(dp8506
sg6418
(dp8507
sg5365
(dp8508
sg6422
(dp8509
sg6424
(dp8510
sg5367
(dp8511
sVGinny
p8512
(dp8513
sg6429
(dp8514
sg5370
(dp8515
sg6433
(dp8516
sg6435
(dp8517
sg6437
(dp8518
sg6439
(dp8519
sg6213
(dp8520
sg6442
(dp8521
sg6444
(dp8522
sg6250
(dp8523
sg5379
(dp8524
sg3070
(dp8525
sg6450
(dp8526
sg6273
(dp8527
sg5386
(dp8528
sg6456
(dp8529
sVDrive
p8530
(dp8531
sg5401
(dp8532
sg6462
(dp8533
sg6464
(dp8534
sg6361
(dp8535
sg6467
(dp8536
sg6469
(dp8537
sg6471
(dp8538
sg6420
(dp8539
sg6475
(dp8540
sg6477
(dp8541
sVPerenelle
p8542
(dp8543
ssg6481
g6484
sg6485
g6484
sg6486
(dp8544
g7923
(dp8545
sg4
(dp8546
sg5423
(dp8547
sg5427
(dp8548
sg6
(dp8549
g6180
(dp8550
ssg25
(dp8551
g30
(dp8552
ssg5431
(dp8553
sg5433
(dp8554
sg7932
(dp8555
sg5437
(dp8556
sg32
(dp8557
sg48
(dp8558
sg5442
(dp8559
sg5444
(dp8560
sg5446
(dp8561
sg5448
(dp8562
sg5452
(dp8563
sg7482
(dp8564
sg51
(dp8565
g86
(dp8566
ssg5458
(dp8567
sg113
(dp8568
sg5462
(dp8569
sg5464
(dp8570
sg6344
(dp8571
sg1069
(dp8572
g1012
(dp8573
ssg5467
(dp8574
sg7951
(dp8575
g216
(dp8576
ssg5471
(dp8577
sg5473
(dp8578
sg5475
(dp8579
sg5778
(dp8580
sg5478
(dp8581
sg5480
(dp8582
sg147
(dp8583
sg183
(dp8584
sg213
(dp8585
sg6408
(dp8586
sg5487
(dp8587
sg5953
(dp8588
sg5491
(dp8589
sg216
(dp8590
g7951
g8576
ssg253
(dp8591
sg5495
(dp8592
sg7969
(dp8593
sg5499
(dp8594
sg5501
(dp8595
sg5503
(dp8596
sg260
(dp8597
sg309
(dp8598
sg311
(dp8599
g5762
(dp8600
ssg5509
(dp8601
g2358
(dp8602
ssg5511
(dp8603
sg5513
(dp8604
sg5515
(dp8605
g5969
(dp8606
sg3583
(dp8607
ssg5518
(dp8608
sg5996
(dp8609
sg5522
(dp8610
g2714
(dp8611
ssg5524
(dp8612
sg315
(dp8613
g426
(dp8614
ssg5528
(dp8615
sg6326
(dp8616
sg427
(dp8617
sg451
(dp8618
sg5535
(dp8619
g5607
(dp8620
ssg5537
(dp8621
sg5539
(dp8622
sg5806
(dp8623
sg7994
(dp8624
g3071
(dp8625
ssg559
(dp8626
sg893
(dp8627
sg5548
(dp8628
sg5550
(dp8629
sg5552
(dp8630
sg1309
(dp8631
g1306
(dp8632
ssg5555
(dp8633
sg910
(dp8634
g943
(dp8635
ssg944
(dp8636
sg5561
(dp8637
sg5563
(dp8638
sg5565
(dp8639
sg957
(dp8640
sg972
(dp8641
sg2172
(dp8642
sg5571
(dp8643
sg979
(dp8644
sg5574
(dp8645
sg5576
(dp8646
sg997
(dp8647
sg5579
(dp8648
sg1000
(dp8649
sg5583
(dp8650
sg5585
(dp8651
sg1008
(dp8652
sg5588
(dp8653
sg1012
(dp8654
g1069
g8573
sg6064
(dp8655
sg1070
(dp8656
ssg1074
(dp8657
sg1107
(dp8658
sg5593
(dp8659
g5859
(dp8660
ssg5595
(dp8661
g5746
(dp8662
ssg5911
(dp8663
g8512
(dp8664
ssg8028
(dp8665
sg5971
(dp8666
sg1109
(dp8667
sg1112
(dp8668
sg5603
(dp8669
sg1178
(dp8670
sg8035
(dp8671
g5632
(dp8672
sg6313
(dp8673
ssg1184
(dp8674
sg5610
(dp8675
sg1192
(dp8676
sg1214
(dp8677
sg5614
(dp8678
sg1220
(dp8679
sg5617
(dp8680
sg5619
(dp8681
sg1242
(dp8682
g5879
(dp8683
ssg5624
(dp8684
sg1274
(dp8685
sg5626
(dp8686
sg5814
(dp8687
sg5630
(dp8688
sg5634
(dp8689
sg1279
(dp8690
sg1306
(dp8691
g1363
(dp8692
sg1309
g8632
sg1312
(dp8693
ssg5640
(dp8694
g5885
(dp8695
ssg1313
(dp8696
sg1363
(dp8697
g1306
g8692
ssg5646
(dp8698
sg1372
(dp8699
sg5650
(dp8700
sg5652
(dp8701
sg1391
(dp8702
g8462
(dp8703
ssg5658
(dp8704
sg5660
(dp8705
sg5662
(dp8706
sg5664
(dp8707
sg5666
(dp8708
sg8067
(dp8709
sg5670
(dp8710
sg5672
(dp8711
sg5674
(dp8712
sg1455
(dp8713
sg5677
(dp8714
sg5679
(dp8715
sg5251
(dp8716
g4044
(dp8717
ssg1463
(dp8718
sg5684
(dp8719
sg5686
(dp8720
sg1684
(dp8721
sg5690
(dp8722
sg5692
(dp8723
sg5694
(dp8724
sg5696
(dp8725
sg5698
(dp8726
sg8085
(dp8727
sg5702
(dp8728
g2752
(dp8729
ssg5704
(dp8730
sg5969
(dp8731
g5515
g8606
sg3583
(dp8732
ssg5708
(dp8733
sg1698
(dp8734
g5808
(dp8735
sg5868
(dp8736
ssg5712
(dp8737
g2994
(dp8738
ssg5714
(dp8739
sg5716
(dp8740
sg5718
(dp8741
sg6047
(dp8742
sg5722
(dp8743
sg1822
(dp8744
sg5725
(dp8745
sg1879
(dp8746
sg6178
(dp8747
sg5729
(dp8748
sg8103
(dp8749
sg1881
(dp8750
sg5736
(dp8751
g3963
(dp8752
ssg906
(dp8753
sg5740
(dp8754
g2857
(dp8755
ssg5742
(dp8756
sg6460
(dp8757
sg5744
(dp8758
sg5746
(dp8759
g5595
g8662
ssg5748
(dp8760
sg5750
(dp8761
sg5752
(dp8762
sg1883
(dp8763
sg5417
(dp8764
sg1891
(dp8765
g6095
(dp8766
ssg5758
(dp8767
sg5760
(dp8768
sg5762
(dp8769
g311
g8600
ssg1993
(dp8770
sg1996
(dp8771
sg5765
(dp8772
sg2001
(dp8773
sg6356
(dp8774
g2149
(dp8775
ssg5770
(dp8776
sg5772
(dp8777
sg5774
(dp8778
sg6184
(dp8779
sg2003
(dp8780
sg5780
(dp8781
sg5782
(dp8782
sg2006
(dp8783
sg2018
(dp8784
sg5787
(dp8785
sg8137
(dp8786
sg5791
(dp8787
sg2020
(dp8788
sg5794
(dp8789
sg5796
(dp8790
g2227
(dp8791
ssg5798
(dp8792
sg5800
(dp8793
sg6386
(dp8794
sg2081
(dp8795
sg2104
(dp8796
sg5808
(dp8797
g1698
g8735
ssg5810
(dp8798
sg2109
(dp8799
sg5628
(dp8800
sg5816
(dp8801
sg2138
(dp8802
sg5700
(dp8803
sg2146
(dp8804
sg5822
(dp8805
g6268
(dp8806
ssg2149
(dp8807
g6356
g8775
ssg6021
(dp8808
sg2154
(dp8809
sg2159
(dp8810
sg5829
(dp8811
sg2729
(dp8812
g2720
(dp8813
ssg5832
(dp8814
sg2161
(dp8815
sg6473
(dp8816
sg2165
(dp8817
sg5837
(dp8818
sg5839
(dp8819
sg2220
(dp8820
sg5843
(dp8821
sg5845
(dp8822
sg5847
(dp8823
sg5841
(dp8824
sg5850
(dp8825
sg5852
(dp8826
g6128
(dp8827
ssg5854
(dp8828
sg5856
(dp8829
sg2227
(dp8830
g5796
g8791
ssg5859
(dp8831
g5593
g8660
ssg5861
(dp8832
sg30
(dp8833
g25
g8552
ssg5864
(dp8834
sg5866
(dp8835
sg5868
(dp8836
g1698
g8736
ssg5870
(dp8837
sg5872
(dp8838
sg2238
(dp8839
sg5877
(dp8840
sg5879
(dp8841
g1242
g8683
ssg5881
(dp8842
sg5883
(dp8843
sg5885
(dp8844
g5640
g8695
ssg8193
(dp8845
g5282
(dp8846
ssg5889
(dp8847
sg2241
(dp8848
sg5893
(dp8849
sg5895
(dp8850
sg2247
(dp8851
sg2249
(dp8852
sg1312
(dp8853
g1306
g8693
ssg2254
(dp8854
sg2257
(dp8855
sg2274
(dp8856
sg2277
(dp8857
sg2287
(dp8858
sg5906
(dp8859
g6437
(dp8860
ssg2290
(dp8861
sg8209
(dp8862
sg6219
(dp8863
sg5913
(dp8864
sg2294
(dp8865
sg5917
(dp8866
sg5919
(dp8867
sg5921
(dp8868
sg2308
(dp8869
g2327
(dp8870
ssg5924
(dp8871
sg5266
(dp8872
g5252
(dp8873
ssg5927
(dp8874
sg5929
(dp8875
sg5931
(dp8876
sg5933
(dp8877
sg2337
(dp8878
sg2353
(dp8879
sg5937
(dp8880
sg5939
(dp8881
sg5941
(dp8882
sg6351
(dp8883
sg2358
(dp8884
g5509
g8602
ssg5945
(dp8885
sg6036
(dp8886
sg5439
(dp8887
sg5949
(dp8888
sg5489
(dp8889
sg2373
(dp8890
sg2386
(dp8891
sg5959
(dp8892
sg2392
(dp8893
sg5963
(dp8894
sg5965
(dp8895
sg5590
(dp8896
sg5706
(dp8897
sg2412
(dp8898
sg2422
(dp8899
sg5975
(dp8900
sg2487
(dp8901
g6322
(dp8902
ssg5979
(dp8903
sg2504
(dp8904
g6106
(dp8905
ssg2529
(dp8906
sg5984
(dp8907
g8270
(dp8908
ssg2542
(dp8909
sg5988
(dp8910
sg2851
(dp8911
g2838
(dp8912
ssg2553
(dp8913
sg5994
(dp8914
sg8257
(dp8915
sg1265
(dp8916
sg6394
(dp8917
sg6001
(dp8918
sg8262
(dp8919
sg2987
(dp8920
g2984
(dp8921
ssg2583
(dp8922
sg6007
(dp8923
sg2586
(dp8924
sg6010
(dp8925
sg6012
(dp8926
sg8270
(dp8927
g5984
g8908
ssg6018
(dp8928
sg2992
(dp8929
g2989
(dp8930
ssg2589
(dp8931
sg2597
(dp8932
sg6399
(dp8933
sg6026
(dp8934
sg2600
(dp8935
sg6028
(dp8936
sg6030
(dp8937
sg6014
(dp8938
sg6034
(dp8939
sg5530
(dp8940
sg2708
(dp8941
sg6039
(dp8942
sg6041
(dp8943
sg6043
(dp8944
sg6045
(dp8945
sg8289
(dp8946
sg2711
(dp8947
sg6050
(dp8948
sg943
(dp8949
g910
g8635
ssg6053
(dp8950
sg6055
(dp8951
sg5632
(dp8952
g6313
(dp8953
sg8035
g8672
ssg1070
(dp8954
g1012
g8656
ssg2714
(dp8955
g5522
g8611
ssg6062
(dp8956
sg6064
(dp8957
g1012
g8655
ssg6066
(dp8958
sg2720
(dp8959
g2729
g8813
ssg6069
(dp8960
sg6071
(dp8961
sg2738
(dp8962
sg6074
(dp8963
sg2741
(dp8964
sg2749
(dp8965
sg2752
(dp8966
g5702
g8729
ssg6080
(dp8967
sg2800
(dp8968
sg6084
(dp8969
sg6086
(dp8970
sg6088
(dp8971
sg6091
(dp8972
sg6093
(dp8973
sg6095
(dp8974
g1891
g8766
ssg6097
(dp8975
sg6099
(dp8976
sg6101
(dp8977
g2803
(dp8978
ssg6103
(dp8979
sg6106
(dp8980
g2504
g8905
ssg6108
(dp8981
sg6110
(dp8982
sg6112
(dp8983
sg2803
(dp8984
g6101
g8978
ssg2821
(dp8985
sg6118
(dp8986
sg6120
(dp8987
sg6122
(dp8988
sg2829
(dp8989
sg2838
(dp8990
g2851
g8912
ssg2854
(dp8991
sg6128
(dp8992
g5852
g8827
ssg6130
(dp8993
sg8336
(dp8994
sg6134
(dp8995
g3975
(dp8996
ssg6136
(dp8997
g4044
(dp8998
ssg6138
(dp8999
sg2857
(dp9000
g5740
g8755
ssg6141
(dp9001
sg2984
(dp9002
g2987
g8921
ssg6145
(dp9003
sg2989
(dp9004
g2992
g8930
ssg2994
(dp9005
g5712
g8738
ssg2327
(dp9006
g2308
g8870
ssg6150
(dp9007
sg2998
(dp9008
sg6152
(dp9009
sg3008
(dp9010
g5607
(dp9011
ssg3010
(dp9012
sg6157
(dp9013
sg6159
(dp9014
sg3015
(dp9015
sg3019
(dp9016
sg3022
(dp9017
g3070
(dp9018
ssg3071
(dp9019
g7994
g8625
ssg3094
(dp9020
sg6169
(dp9021
sg3096
(dp9022
sg5668
(dp9023
sg6173
(dp9024
sg6175
(dp9025
sg3115
(dp9026
sg3267
(dp9027
sg6180
(dp9028
g6
g8550
ssg6182
(dp9029
sg5986
(dp9030
sg6186
(dp9031
sg6188
(dp9032
sg6190
(dp9033
sg6192
(dp9034
sg6194
(dp9035
sg5835
(dp9036
sg8376
(dp9037
sg6199
(dp9038
sg6201
(dp9039
sg6203
(dp9040
sg6205
(dp9041
sg6207
(dp9042
sg6209
(dp9043
sg6211
(dp9044
sg3269
(dp9045
sg6215
(dp9046
sg6217
(dp9047
sg5992
(dp9048
sg6221
(dp9049
sg6223
(dp9050
sg6225
(dp9051
sg3273
(dp9052
g6335
(dp9053
ssg3286
(dp9054
sg6230
(dp9055
sg6232
(dp9056
sg6234
(dp9057
sg3288
(dp9058
g86
(dp9059
ssg3293
(dp9060
sg6239
(dp9061
sg8400
(dp9062
g3583
(dp9063
ssg6243
(dp9064
g6309
(dp9065
ssg3309
(dp9066
sg6246
(dp9067
sg1987
(dp9068
g6375
(dp9069
ssg3382
(dp9070
g3368
(dp9071
ssg6252
(dp9072
sg6254
(dp9073
sg3338
(dp9074
sg3344
(dp9075
sg6259
(dp9076
sg6261
(dp9077
sg6263
(dp9078
sg6447
(dp9079
sg6265
(dp9080
sg3356
(dp9081
sg6268
(dp9082
g5822
g8806
ssg3368
(dp9083
g3382
g9071
ssg6271
(dp9084
sg6452
(dp9085
sg6335
(dp9086
g3273
g9053
ssg3383
(dp9087
sg8423
(dp9088
sg6281
(dp9089
sg5450
(dp9090
sg3386
(dp9091
sg6287
(dp9092
sg6379
(dp9093
sg6290
(dp9094
sg3391
(dp9095
sg3487
(dp9096
sg3495
(dp9097
sg286
(dp9098
sg6298
(dp9099
sg6300
(dp9100
sg3506
(dp9101
sg6304
(dp9102
sg426
(dp9103
g315
g8614
ssg3527
(dp9104
sg6309
(dp9105
g6243
g9065
ssg6311
(dp9106
sg6313
(dp9107
g5632
g8953
sg8035
g8673
ssg3533
(dp9108
sg3535
(dp9109
sg6318
(dp9110
sg3565
(dp9111
sg6322
(dp9112
g2487
g8902
ssg3571
(dp9113
sg3574
(dp9114
sg5607
(dp9115
g3008
g9011
sg5535
g8620
ssg6330
(dp9116
sg3579
(dp9117
sg3583
(dp9118
g5969
g8732
sg8400
g9063
sg5515
g8607
ssg8455
(dp9119
sg6337
(dp9120
sg6277
(dp9121
sg6339
(dp9122
sg3963
(dp9123
g5736
g8752
ssg6342
(dp9124
sg8462
(dp9125
g1391
g8703
ssg3967
(dp9126
sg5425
(dp9127
sg6349
(dp9128
sg3975
(dp9129
g6134
g8996
ssg6714
(dp9130
sg5768
(dp9131
sg3987
(dp9132
sg6359
(dp9133
sg3989
(dp9134
sg6363
(dp9135
sg8474
(dp9136
sg6024
(dp9137
sg6369
(dp9138
sg6371
(dp9139
sg4013
(dp9140
sg4033
(dp9141
sg6375
(dp9142
g1987
g9069
ssg6377
(dp9143
sg6367
(dp9144
sg6381
(dp9145
sg4042
(dp9146
sg4044
(dp9147
g6136
g8998
sg5251
g8717
ssg5951
(dp9148
sg6388
(dp9149
sg6390
(dp9150
sg6392
(dp9151
sg5656
(dp9152
sg86
(dp9153
g3288
g9059
sg51
g8566
ssg6397
(dp9154
sg5874
(dp9155
sg5252
(dp9156
g5266
g8873
ssg8496
(dp9157
sg6404
(dp9158
sg6406
(dp9159
sg5731
(dp9160
sg5267
(dp9161
sg5282
(dp9162
g8193
g8846
ssg5362
(dp9163
sg8504
(dp9164
sg6416
(dp9165
sg6418
(dp9166
sg5365
(dp9167
sg6422
(dp9168
sg6424
(dp9169
sg5367
(dp9170
sg8512
(dp9171
g5911
g8664
ssg6429
(dp9172
sg5370
(dp9173
sg6433
(dp9174
sg6435
(dp9175
sg6437
(dp9176
g5906
g8860
ssg6439
(dp9177
sg6213
(dp9178
sg6442
(dp9179
sg6444
(dp9180
sg6250
(dp9181
sg5379
(dp9182
sg3070
(dp9183
g3022
g9018
ssg6450
(dp9184
sg6273
(dp9185
sg5386
(dp9186
sg6456
(dp9187
sg8530
(dp9188
sg5401
(dp9189
sg6462
(dp9190
sg6464
(dp9191
sg6361
(dp9192
sg6467
(dp9193
sg6469
(dp9194
sg6471
(dp9195
sg6420
(dp9196
sg6475
(dp9197
sg6477
(dp9198
sg8542
(dp9199
ssg7915
(dp9200
sg7917
g6484
sg7918
g8544
sbtp9201
.