((dp0
VTreacle
p1
(lp2
g1
asVDad
p3
(lp4
g3
aVDad
p5
aVDad
p6
aVDad
p7
aVDad
p8
aVDad
p9
aVDad
p10
aVDad
p11
aVDad
p12
aVDad
p13
aVDad
p14
aVDad
p15
aVDad
p16
aVDad
p17
aVDad
p18
aVDad
p19
aVDad
p20
aVDad
p21
aVDad
p22
aVDad
p23
asVAward
p24
(lp25
VMost Charming Smile Award
p26
aVMost Charming Smile Award
p27
aVa Special Award
p28
aVMost Charming Smile Award
p29
aVboth receive Special Awards
p30
asVW-what
p31
(lp32
g31
aVW-what
p33
aVW-what
p34
asVCelebrity
p35
(lp36
g35
asVVoldemort
p37
(lp38
VLord Voldemort
p39
aVVoldemort
p40
aVVoldemort
p41
aVLord Voldemort
p42
ag40
ag41
aVVoldemort
p43
aVVoldemort
p44
aVVoldemort
p45
ag43
ag44
ag45
aVVoldemort
p46
aVof monster Voldemort
p47
aVof monster Voldemort
p48
aVLord Voldemort
p49
aVVoldemort
p50
aVVoldemort
p51
aVLord Voldemort
p52
aVVoldemort
p53
ag53
aVLord Voldemort
p54
aVLord Voldemort
p55
aVLord Voldemort
p56
aVLord Voldemort
p57
aVLord Voldemort
p58
aVLord Voldemort
p59
aVLord Voldemort
p60
aVVoldemort
p61
aVLord Voldemort
p62
aVLord Voldemort
p63
aVVol
p64
aVthe Dark Lord
p65
aVthe Dark Lord
p66
aVthe Dark Lord
p67
aVanother Dark Lord
p68
aVthe Dark Lord
p69
aVThe Dark Lord
p70
aVLord Voldemort
p71
aVLord Voldemort
p72
aVLord Voldemort
p73
aVLord Voldemort
p74
aVLord Voldemort
p75
aVLord Voldemort
p76
aVLord Voldemort
p77
aVLord Voldemort
p78
aVLord Voldemort
p79
aVLord Voldemort
p80
aVLord Voldemort
p81
aVLord Voldemort
p82
aVLord Voldemort
p83
asVMrs.
p84
(lp85
VMr. and Mrs. Granger
p86
aVMrs. Weasley
p87
aVMrs. Weasley
p88
aVMrs. Weasley
p89
aVMrs. Weasley
p90
aVMrs. Weasley
p91
aVMrs. Weasley
p92
aVMrs. Weasley
p93
aVMrs. Weasley
p94
aVMrs. Weasley
p95
aVMrs. Weasley
p96
aVMr. and Mrs. Weasley
p97
aVMrs. Weasley
p98
aVtheir coats and Mrs. Weasley
p99
aVMrs. Weasley
p100
aVMrs. Weasley
p101
aVMrs. Weasley
p102
aVfright and Mrs. Weasley
p103
aVMrs. Weasley
p104
aVMrs. Weasley
p105
aVMrs. Weasley
p106
aVMrs. Weasley
p107
aVMrs. Weasley
p108
aVMr. and Mrs. Weasley
p109
aVMrs. Weasley
p110
aVMrs. Weasley
p111
aVMrs. Weasley
p112
aVMrs. Weasley
p113
aVMrs. Weasley now
p114
aVMrs. Weasley sharply
p115
aVMrs. Weasley and Ginny
p116
aVMrs. Weasleys
p117
aVMrs. Norris and Colin Creevey
p118
aVMr. and Mrs. Mason
p119
aVMr. and Mrs. Weasley
p120
aVMr. and Mrs. Weasley
p121
aVMr. and Mrs. Weasley
p122
aVMrs. Weasley and Ginny
p123
asVI'd
p124
(lp125
g124
aVI'd
p126
aVjoin...Thought I'd
p127
aVI'd
p128
aVI'd
p129
aVI'd
p130
aVI'd
p131
aVI'd
p132
aVI'd
p133
aVI'd
p134
aVI'd
p135
aVI'd
p136
aVI'd
p137
aVI'd
p138
aVI'd
p139
aVI'd
p140
aVthose long years I'd
p141
aVme I'd
p142
aVI'd
p143
aVI'd
p144
aVhim I'd never
p145
aVI'd never
p146
aVI'd still
p147
aVI'd just
p148
aVI'd never
p149
asVDefense
p150
(lp151
VThe new Defense
p152
aVDefense
p153
aVon the Defense
p154
aVDefense
p155
aVtheir very next Defense
p156
aVDefense
p157
aVtheir Defense
p158
aVthe Defense
p159
aVa new Defense
p160
aVDefense
p161
aVthe Dark Force Defense League
p162
aVthe Dark Force Defense League
p163
aVthe Dark Force Defense League
p164
aVthe Dark Force Defense League
p165
asVPetunia
p166
(lp167
g166
aVPetunia
p168
aVPetunia
p169
aVPetunia
p170
aVPetunia
p171
aVPetunia
p172
aVAunt Petunia
p173
aV...tell Petunia
p174
aVAunt Petunia
p175
aVAunt Petunia
p176
aVAunt Petunia
p177
aVAunt Petunia
p178
aVPetunia
p179
aVAunt Petunia
p180
aVAunt Petunia
p181
aVAunt Petunia
p182
aVUncle Vernon and Aunt Petunia
p183
aVAunt Petunia rapturously
p184
aVAunt Petunias
p185
asVGeorge
p186
(lp187
VFred and George
p188
aVGeorge
p189
aVGeorge
p190
aVFred and George
p191
aVGeorge
p192
aVGeorge
p193
aVFred and George
p194
aVGeorge
p195
aVHarry and George
p196
aVGeorge
p197
aVGeorge
p198
aVGeorge
p199
aVGeorge
p200
aVFred and George
p201
aVGeorge
p202
aVGeorge
p203
aVGeorge
p204
aVGeorge
p205
aVGeorge
p206
aVGeorge
p207
aVGeorge
p208
aVGeorge
p209
aVGeorge
p210
aVGeorge
p211
aVGeorge
p212
aVGeorge
p213
aVGeorge
p214
aVFred and George
p215
aVFred and George
p216
aVGeorge
p217
aVGeorge
p218
aVGeorge
p219
aVGeorge
p220
aVGeorge
p221
aVGeorge
p222
aVyou see Fred and George
p223
aVGeorge
p224
aVFred and George
p225
aVFred and George
p226
aVGeorge
p227
aVFred and George
p228
aVFred or George
p229
aVFred and George
p230
aVGeorge
p231
aVGeorge
p232
aVFred and George
p233
aVGeorge
p234
ag234
aVFred and George
p235
aVFred and George
p236
aVGeorge
p237
aVFred and George
p238
aVGeorge
p239
aVGeorge
p240
aVGeorge
p241
aVFred and George
p242
aVFred and George
p243
aVFred and George
p244
aVFred and George
p245
aVGeorge
p246
aVGeorge
p247
aVGeorge
p248
ag246
ag247
ag248
aVFred and George
p249
aVGeorge
p250
aVGeorge
p251
aVGeorge
p252
aVGeorge
p253
aVGeorge
p254
aVGeorge
p255
aVFred and George
p256
aVFred and George
p257
aVGeorge
p258
aVGeorge
p259
aVFred and George
p260
aVGeorge
p261
aVFred and George
p262
aVGeorge
p263
aVFred and George
p264
aVGeorge
p265
aVGeorge
p266
aVFred and George
p267
aVGeorge
p268
aVFred and George
p269
ag268
aVFred and George
p270
aVGeorge
p271
aVGeorge
p272
aVFred and George together
p273
aVFred and George Weasley
p274
aVFred and George Weasley
p275
aVFred and George Weasley
p276
aVFred and George Weasley
p277
aVFred and George Weasley
p278
aVGeorge Weasley
p279
aVGeorge angrily
p280
aVFred and George Weasley
p281
asVWillow
p282
(lp283
Va very valuable Whomping Willow
p284
aVby the Whomping Willow
p285
aVthe Whomping Willow
p286
aVthe Whomping Willow
p287
aVthe Whomping Willow
p288
aVthe Whomping Willow
p289
aVa Whomping Willow
p290
aVthe Whomping Willow
p291
aVthe Whomping Willow
p292
asVWeasley
p293
(lp294
Vthe toast Mrs. Weasley
p295
aVMrs. Weasley
p296
ag100
aVMrs. Weasley
p297
aVMrs. Weasley
p298
ag101
aVMuggle-loving fool Arthur Weasley
p299
aVMrs. Weasley
p300
aVMrs. Weasley
p301
aVMrs. Weasley
p302
aVMrs. Weasley
p303
ag102
aVMrs. Weasley
p304
aVWeasley
p305
aVArthur Weasley
p306
aVMrs. Weasley
p307
ag104
aVMrs. Weasley
p308
ag105
ag106
ag107
ag108
aVfaithful sidekick Weasley
p309
aVthat Mr. Weasley
p310
aVWeasley
p311
aVMr. Weasley
p312
aVWeasley
p313
aVMr. Weasley
p314
aVMrs. Weasley
p315
aVMr. Weasley
p316
aVMrs. Weasley
p317
aVWeasley
p318
aVWeasley
p319
aVWeasley
p320
aVWeasley
p321
aVWeasley
p322
aVFred and George Weasley
p323
aVFred and George Weasley
p324
aVFred and George Weasley
p325
aVMr. Weasley
p326
aVMrs. Weasley
p327
aVFred Weasley
p328
aVFred and George Weasley
p329
aVMr. Weasley
p330
aVMrs. Weasley
p331
aVWeasley
p332
aVMr. Weasley
p333
aVMr. Weasley
p334
aVWeasley
p335
aVArthur Weasley
p336
aVMr. Weasley
p337
aVWeasley
p338
aVMr. Weasley
p339
aVArthur Weasley
p340
aVPercy Weasley
p341
aVPercy Weasley
p342
aVWeasley
p343
aVPercy Weasley
p344
aVMr. Weasley
p345
aVMr. Weasley
p346
aVMr. Weasley
p347
aVPercy Weasley
p348
aVWeasley
p349
aVWeasley
p350
aVMr. and Mrs. Weasley
p351
aVMr. Weasley
p352
aVthe real reason Ginny Weasley
p353
aVGinny Weasley
p354
ag110
aVMr. Weasley
p355
ag111
aVMrs. Weasley
p356
ag112
aVMrs. Weasley
p357
aVMr. Weasley
p358
aVMrs. Weasley
p359
aVMr. Weasley
p360
aVMiss Weasley
p361
ag113
aVMr. Weasley
p362
aVGinny Weasley
p363
aVArthur Weasley
p364
aVGinny Weasley
p365
aVGinny Weasley
p366
aVRon Weasley and Hermione Granger
p367
aVMr. Weasley blankly
p368
aVMr. Weasley eagerly
p369
aVMr. Weasley sharply
p370
aVMr. Weasley indignantly
p371
ag116
aVMr. Weasley and Mr. Malfoy apart
p372
aVMr. Weasley and Miss Granger
p373
aVthe Weasleys
p374
aVthe Weasleys
p375
aVthe Weasleys
p376
aVthe Weasleys
p377
aVthe Weasleys
p378
aVthe Weasleys
p379
aVthe Weasleys
p380
aVthe Weasleys
p381
aVthe Weasleys
p382
aVthe Weasleys
p383
aVthe Weasleys
p384
aVthe Weasleys
p385
aVthe Weasleys
p386
aVThe Weasleys
p387
aVthe Weasleys
p388
aVthe Weasleys
p389
aVthe Weasleys
p390
aVthe Weasleys
p391
ag374
ag376
ag378
ag380
ag117
ag383
ag385
aVthen...The Weasleys
p392
asVGoyle
p393
(lp394
VCrabbe and Goyle
p395
aVCrabbe and Goyle
p396
aVGoyle
p397
aVGoyle
p398
aVGoyle
p399
ag397
ag398
ag399
aVGoyle
p400
aVGoyle
p401
aVCrabbe and Goyle
p402
aVGoyle
p403
aVGoyle
p404
aVsure Crabbe and Goyle
p405
aVGoyle
p406
aVCrabbe and Goyle
p407
aVCrabbe and Goyle
p408
aVGoyle
p409
aVGoyle
p410
ag409
ag410
aVher Goyle
p411
aVCrabbe and Goyle
p412
aVGoyle
p413
aVGoyle
p414
aVGoyle
p415
aVGoyle
p416
ag415
ag416
aVGoyle
p417
aVGoyle
p418
aVGoyle
p419
aVGoyle
p420
aVGoyle
p421
aVGoyle
p422
aVGoyle
p423
aVGoyle
p424
aVGoyle
p425
aVGoyle
p426
aVGoyle
p427
aVin Goyle
p428
aVCrabbe and Goyle
p429
aVCrabbe and Goyle
p430
aVCrabbe and Goyle
p431
aVCrabbe and Goyle
p432
aVGoyle obviously
p433
asVHead
p434
(lp435
g434
aVHead
p436
ag436
aVHead still
p437
aVHorseback Head-Juggling and Head Polo
p438
aVHeadless Nick
p439
aVHeadless Nick
p440
aVHeadless Nick
p441
aVHeadless Nick
p442
aVHeadless Nick
p443
aVHeadless Nick
p444
aVHeadless Nick
p445
aVHeadless Nick
p446
aVHeadless Nick
p447
aVHeadless Nick
p448
aVHeadless Nick
p449
aVHeadless Nick
p450
aVHeadless Nick
p451
aVHeadless Nick
p452
aVHeadless Nick
p453
aVJustin and Nearly Headless Nick
p454
aVHeadless Nick
p455
aVHeadless Nick
p456
aVHeadless Nick proudly
p457
aVHeadless Nick loudly
p458
aVJustin and Nearly Headless Nick
p459
aVJustin and Nearly Headless Nick
p460
asVGilderoy
p461
(lp462
g461
aVGilderoy
p463
aVGilderoy
p464
aVGilderoy
p465
aVGilderoy
p466
aVthe words Gilderoy Lockhart
p467
aVGilderoy Lockhart
p468
aVGilderoy Lockhart
p469
aVGilderoy Lockhart
p470
aVGilderoy Lockhart
p471
aVGilderoy Lockhart
p472
aVGilderoy Lockhart
p473
aVGilderoy Lockhart
p474
aVGilderoy Lockhart
p475
aVGilderoy Lockhart
p476
aVGilderoy Lockhart
p477
aVGilderoy Lockhart
p478
aVGilderoy Lockhart
p479
aVpublic...what Gilderoy Lockhart
p480
aVGilderoy Lockhart
p481
aVGilderoy Lockhart
p482
aVGilderoy Lockhart
p483
aVGilderoy Lockhart
p484
aVGilderoy Lockhart
p485
aVGilderoy Lockhart
p486
aVGilderoy Lockhart
p487
aVGilderoy Lockhart
p488
aVGilderoy Lockhart
p489
aVGilderoy Lockhart
p490
aVGilderoy Lockhart
p491
aVGilderoy Lockhart
p492
aVGilderoy Lockhart
p493
aVGilderoy Lockhart
p494
aVGilderoy Lockhart
p495
aVProfessor Gilderoy Lockhart
p496
aVGilderoy Lockhart
p497
aVGilderoy Lockhart
p498
aVGilderoy Lockhart
p499
aVGilderoy Lockhart
p500
asVMudbloods
p501
(lp502
g501
aVMudbloods
p503
aVMudbloods
p504
aVall those Mudbloods
p505
aVthe Mudbloods
p506
aVthe Mudbloods
p507
aVfour Mudbloods
p508
aVMudbloods
p509
aVyou filthy little Mudblood
p510
aVMudblood
p511
aVMudblood
p512
aVGranger Mudblood
p513
aVa Mudblood
p514
aVGranger Mudblood
p515
asVOnes
p516
(lp517
g516
aVOnes
p518
asVever
p519
(lp520
Vno Muggle ever
p521
aVSlytherin ever
p522
aVGryffindor Tower ever
p523
aVHogwarts ever
p524
aVFrom everything Ginny
p525
aVthem everything Dobby
p526
asVNeville
p527
(lp528
g527
aVNeville
p529
aVNeville
p530
aVNeville
p531
aVNeville
p532
aVNeville
p533
aVNeville
p534
aVNeville
p535
aVNeville
p536
aVdesks and Neville
p537
aVNeville
p538
aVNeville
p539
aVNeville
p540
aVNeville
p541
ag541
aVNeville
p542
aVBoth Neville
p543
aVNeville
p544
aVNeville
p545
aVhe and Neville
p546
aVNeville
p547
aVNeville
p548
aVNeville Longbottom
p549
aVNeville Longbottom
p550
aVNeville Longbottom
p551
aVNeville Longbottom
p552
aVNeville Longbottom
p553
aVNeville Longbottom
p554
aVNeville Longbottom
p555
aVNeville Longbottom
p556
aVNeville Longbottom
p557
aVNeville Longbottom
p558
aVNeville Longbottom
p559
aVNeville Longbottom
p560
aVNeville Longbottom
p561
aVNeville Longbottom
p562
aVNeville Longbottom
p563
aVNeville Longbottom
p564
aVNeville Longbottom
p565
aVNeville Longbottom
p566
aVLongbottom and Finch-Fletchley
p567
asVProfessor
p568
(lp569
g568
aVProfessor
p570
aVProfessor
p571
aVProfessor
p572
ag572
aVProfessor
p573
aVProfessor
p574
aVProfessor
p575
aVProfessor
p576
aVProfessor
p577
aVProfessor
p578
aVProfessor
p579
aVProfessor
p580
aVProfessor
p581
aVProfessor
p582
aVProfessor
p583
aVProfessor
p584
aVProfessor
p585
aVProfessor
p586
aVProfessor
p587
aVProfessor
p588
ag588
aVProfessor
p589
aVProfessor
p590
aVProfessor
p591
aVProfessor
p592
aVProfessor
p593
aVProfessor
p594
aVProfessor
p595
aVProfessor
p596
aVProfessor
p597
aVProfessor
p598
aVProfessor
p599
aVProfessor Dumbledore
p600
aVbin Professor Lockhart back
p601
aVProfessor Binns slowly
p602
aVProfessor Binns
p603
aVProfessor Binns
p604
aVProfessor Binns
p605
aVProfessor Binns
p606
aVProfessor Binns
p607
aVProfessor Binns
p608
aVProfessor Binns
p609
aVDecember Professor McGonagall
p610
aVProfessor Dumbledore
p611
aVProfessor Snape
p612
aVProfessor Lockhart
p613
aVProfessor McGonagall
p614
aVProfessor McGonagall sharply
p615
aVProfessor McGonagall
p616
aVProfessor Flitwick and Professor Sinistra
p617
aVProfessor McGonagall
p618
aVHarry and Professor McGonagall alone
p619
aVhe and Professor McGonagall
p620
aVProfessor McGonagall
p621
aVProfessor McGonagall
p622
aVProfessor Dumbledore
p623
aVthe one Professor McGonagall sometimes
p624
aVProfessor McGonagall
p625
aVProfessor Snape
p626
aVProfessor Flitwick
p627
aVProfessor Flitwick
p628
aVProfessor Dippet
p629
aVProfessor McGonagall
p630
aVProfessor McGonagall
p631
aVProfessor McGonagall
p632
aVProfessor McGonagall
p633
aVProfessor McGonagall
p634
aVProfessor McGonagall
p635
aVProfessor McGonagall
p636
aVProfessor McGonagall
p637
aVProfessor Dumbledore
p638
aVProfessor Dumbledore
p639
aVProfessor McGonagall
p640
aVProfessor McGonagall
p641
aVProfessor Dumbledore
p642
aVProfessor McGonagall
p643
aVProfessor McGonagall
p644
aVProfessor McGonagall
p645
aVProfessor McGonagall
p646
aVProfessor McGonagall
p647
aVProfessor Binns
p648
aVProfessor McGonagall
p649
aVProfessor McGonagall
p650
aVProfessor McGonagall
p651
aVProfessor McGonagall
p652
aVProfessor Flitwick
p653
aVProfessor McGonagall
p654
aVProfessor McGonagall
p655
aVProfessor McGonagall
p656
aVProfessor Flitwick
p657
aVProfessor McGonagall
p658
aVProfessor McGonagall
p659
aVProfessor Snape
p660
aVProfessor Lockhart
p661
aVProfessor McGonagall
p662
aVProfessor Dumbledore
p663
aVProfessor McGonagall
p664
aVProfessor McGonagall weakly
p665
aVProfessor McGonagall
p666
aVProfessor Dumbledore
p667
aVProfessor McGonagall
p668
aVProfessor McGonagall crisply
p669
aVProfessor McGonagall
p670
aVProfessor Dumbledore
p671
aVProfessor Lockhart
p672
aVProfessor Lockhart
p673
aVProfessor McGonagall
p674
aVProfessor McGonagall
p675
aVProfessor Dumbledore
p676
aVProfessor McGonagall
p677
aVProfessor Lockhart
p678
aVProfessors McGonagall and Snape
p679
aVProfessors McGonagall and Snape
p680
aVProfessors McGonagall and Snape
p681
asVnever
p682
(lp683
VDobby never
p684
aVhim I'd never
p685
aVI'd never
p686
aVBludgers never
p687
aVBludgers never
p688
aVa flogging Dobby never
p689
aVHarry never
p690
aVYou'd never
p691
aVMadam Pomfrey never
p692
aVHe'd never
p693
aVThat Hagrid never
p694
aVI'd never
p695
asVhere
p696
(lp697
Vyoung Harry here
p698
aVHarry here
p699
aVif Harry here
p700
asVsagely
p701
(lp702
VRon sagely
p703
asVBludger
p704
(lp705
Va heavy black Bludger
p706
aVthe Bludger
p707
aVthe Bludger
p708
aVthe Bludger
p709
aVthe Bludger
p710
aVthe Bludger
p711
aVthe Bludger
p712
aVthe Bludger
p713
aVthe Bludger
p714
aVthe Bludger
p715
aVthe Bludger
p716
aVthe Bludger
p717
aVthe Bludger
p718
aVthe Bludger
p719
aVthe Bludger
p720
aVthe Bludger
p721
aVthe mad Bludger
p722
aVBludger
p723
aVthe Bludger
p724
aVthe mad Bludger
p725
aVBludger
p726
aVthe other Bludger
p727
aVof a crazy Bludger
p728
aVthe Bludger
p729
aVthe Bludger
p730
aVthe Bludger
p731
aVthe rogue Bludger
p732
aVhim the Bludger
p733
aVthe Bludger
p734
aVthe Bludger
p735
aVThe Bludger
p736
aVthe Bludger
p737
aVthe Bludger
p738
aVthe Bludger
p739
aVThe Bludger
p740
aVthe Bludger
p741
aVthe rogue Bludger
p742
aVBludger
p743
aVhis Bludger
p744
aVYour Bludger
p745
aVyour Bludger
p746
aVthe Bludger back
p747
aVthe Bludger back
p748
aVBludgers
p749
aVthe Bludgers
p750
aVthe Bludgers away
p751
aVBludgers never
p752
aVBludgers never
p753
asVHagrid
p754
(lp755
g754
ag754
aVHagrid
p756
aVHagrid
p757
aVHagrid
p758
aVHagrid
p759
aVHagrid
p760
aVHagrid
p761
aVHagrid
p762
aVHagrid
p763
aVHagrid
p764
aVHagrid
p765
aVHagrid
p766
aVHagrid
p767
aVHagrid
p768
aVHagrid
p769
aVHagrid
p770
aVHagrid
p771
aVof Hagrid
p772
aVHagrid
p773
aVHagrid
p774
aVHagrid
p775
ag775
aVHagrid
p776
aVHagrid
p777
aVHagrid
p778
aVHagrid
p779
aVHagrid
p780
aVHagrid
p781
aVHagrid
p782
aVHagrid
p783
aVHagrid
p784
aVHagrid
p785
aVHagrid
p786
aVHagrid
p787
aVHagrid
p788
aVHagrid
p789
aVHagrid
p790
aVHagrid
p791
aVHagrid
p792
aVHagrid
p793
aVHagrid
p794
aVHagrid
p795
aVHagrid
p796
aVHagrid
p797
aVHagrid
p798
aVHagrid
p799
aVHagrid
p800
aVHagrid
p801
aVHagrid
p802
aVHagrid
p803
aVHagrid
p804
aVHagrid
p805
aVHagrid
p806
aVHagrid
p807
aVHagrid
p808
aVHagrid
p809
aVHagrid
p810
aVHagrid
p811
aVHagrid
p812
aVHagrid
p813
aVHagrid
p814
aVHagrid
p815
aVHagrid
p816
aVHagrid
p817
ag816
ag817
aVHagrid
p818
aVHagrid
p819
aVHagrid
p820
aVHagrid
p821
aVHagrid
p822
aVHagrid
p823
aVHagrid
p824
aVHagrid
p825
aVHagrid
p826
aVHagrid
p827
aVHagrid
p828
aVHagrid
p829
aVHagrid
p830
aVHagrid
p831
aVHagrid
p832
aVHagrid
p833
aVHagrid
p834
aVHagrid
p835
aVHagrid
p836
aVHagrid
p837
aVHagrid
p838
aVHagrid
p839
aVHagrid
p840
aVHagrid
p841
aVHagrid
p842
aVHagrid
p843
aVHagrid
p844
aVHagrid
p845
aVHagrid
p846
aVHagrid
p847
aVHagrid
p848
aVHagrid
p849
aVHagrid
p850
aVHagrid
p851
aVHagrid
p852
aVHagrid
p853
aVHagrid
p854
aVHagrid
p855
aVHagrid
p856
aVHagrid
p857
aVHagrid
p858
aVno Hagrid
p859
aVHagrid
p860
ag860
aVHagrid
p861
aVHagrid
p862
aVHagrid
p863
aVHagrid
p864
aVHagrid
p865
aVHagrid
p866
aVHagrid
p867
aVHagrid
p868
ag867
ag868
aVit Hagrid
p869
aVHagrid
p870
aVHagrid
p871
aVHagrid
p872
aVHagrid
p873
aVHagrid
p874
aVHagrid
p875
aVHagrid
p876
aVHagrid
p877
aVall through Hagrid
p878
aVHagrid
p879
aVHagrid
p880
aVHagrid
p881
aVHagrid
p882
aVHagrid
p883
aVHagrid
p884
ag883
ag884
aVHagrid
p885
aVHagrid
p886
aVHagrid
p887
ag887
aVHagrid
p888
aVHagrid
p889
aVHagrid
p890
aVHagrid
p891
aVHagrid
p892
aVHagrid
p893
aVHagrid
p894
aVHagrid
p895
aVthough Hagrid
p896
aVHagrid
p897
aVHagrid
p898
aVHagrid
p899
aVHagrid grimly
p900
aVHagrid loudly
p901
aVHagrid happily
p902
aVHagrid down Knockturn Alley
p903
aVHagrid furiously
p904
aVThat Hagrid never
p905
asVimpatiently
p906
(lp907
VRon impatiently
p908
aVRon impatiently
p909
aVRon impatiently
p910
aVHermione impatiently
p911
aVMalfoy impatiently
p912
asVPlease...they
p913
(lp914
g913
asVPercy
p915
(lp916
g915
aVPercy
p917
aVPercy
p918
aVPercy
p919
aVPerfect Percy
p920
aVelder brother Percy
p921
aVPercy
p922
aVPercy
p923
aVPercy
p924
aVPercy
p925
aVPercy
p926
ag926
aVPercy
p927
aVPercy
p928
aVPercy
p929
aVPercy
p930
aVPercy
p931
aVPercy
p932
aVPercy
p933
aVPercy
p934
aVPercy
p935
aVPercy
p936
aVsome by Percy
p937
aVPercy
p938
aVPercy
p939
aVPercy
p940
aVPercy
p941
aVPercy
p942
aVPercy
p943
aVPercy
p944
aVPercy
p945
aVPercy
p946
aVPercy
p947
aVPercy
p948
aVPercy
p949
aVPercy
p950
aVPercy
p951
aVPercy
p952
aVPercy
p953
aVPercy
p954
aVPercy
p955
aVPercy
p956
aVPercy
p957
aVPercy
p958
aVPercy
p959
aVPercy
p960
aVPercy
p961
aVPercy
p962
aVPercy
p963
aVPercy
p964
aVPercy
p965
aVPercy
p966
aVPercy
p967
aVPercy
p968
aVPercy
p969
aVPercy
p970
aVPercy
p971
aVPercy
p972
aVPercy
p973
aVPercy
p974
aVPercy briskly
p975
aVPercy Weasley
p976
aVPercy fiercely
p977
aVPercy Weasley
p978
aVPercy sternly
p979
aVPercy Weasley
p980
aVPercy Weasley
p981
aVPercy sternly
p982
aVPercy loudly
p983
aVPercy Weasley
p984
aVPercy Weasley
p985
aVPercy Weasley
p986
aVPercy sternly
p987
aVPercy sternly
p988
asVPomfrey
p989
(lp990
VMadam Pomfrey
p991
aVMadam Pomfrey
p992
aVMadam Pomfrey
p993
aVMadam Pomfrey
p994
aVHermione and Madam Pomfrey
p995
aVMadam Pomfrey
p996
aVMadam Pomfrey
p997
aVMadam Pomfrey
p998
aVMadam Pomfrey
p999
aVMadam Pomfrey
p1000
aVMadam Pomfrey
p1001
aVMadam Pomfrey
p1002
aVMadam Pomfrey
p1003
aVMadam Pomfrey
p1004
aVMadam Pomfrey
p1005
aVMadam Pomfrey
p1006
aVMadam Pomfrey
p1007
aVMadam Pomfrey
p1008
aVMadam Pomfrey
p1009
aVMadam Pomfrey
p1010
aVMadam Pomfrey
p1011
aVMadam Pomfrey
p1012
aVMadam Pomfrey
p1013
aVMadam Pomfrey
p1014
aVMadam Pomfrey
p1015
aVMadam Pomfrey
p1016
aVMadam Pomfrey grimly
p1017
aVMadam Pomfrey wonderingly
p1018
aVMadam Pomfrey never
p1019
asVfamily
p1020
(lp1021
VThe wizard family Dobby
p1022
asVangrily
p1023
(lp1024
VHarry angrily
p1025
aVHarry angrily
p1026
aVRon angrily
p1027
aVHarry angrily
p1028
aVGeorge angrily
p1029
aVAlicia Spinner angrily
p1030
aVHarry angrily
p1031
aVRon angrily
p1032
asVNick
p1033
(lp1034
VNick
p1035
aVNick
p1036
aVNick
p1037
aVNick
p1038
aVNick
p1039
aVNick
p1040
aVNick
p1041
aVNick
p1042
ag450
aVHeadless Nick
p1043
ag451
ag452
aVJustin and Nearly Headless Nick
p1044
ag453
aVHeadless Nick
p1045
aVNick
p1046
ag454
aVHeadless Nick
p1047
ag455
aVJustin and Nearly Headless Nick
p1048
ag456
aVNick
p1049
aVNick eagerly
p1050
aVHeadless Nick now
p1051
aVHeadless Nick bitterly
p1052
aVHeadless Nick darkly
p1053
asVTom
p1054
(lp1055
g1054
aVTom
p1056
aVTom
p1057
aVTom
p1058
aVTom
p1059
aVTom
p1060
aVTom
p1061
aVDear Tom
p1062
aVDear Tom
p1063
aVDear Tom
p1064
aVTom
p1065
aVTom
p1066
aVDear
p1067
aVDear
p1068
aVDear
p1069
aVDear Mr. Potter
p1070
aVDear Ron
p1071
aVDear Tom
p1072
aVDear Tom
p1073
aVDear Tom
p1074
asVIt'd
p1075
(lp1076
g1075
asVExpress
p1077
(lp1078
Vthe Hogwarts Express
p1079
aVthe Hogwarts Express
p1080
aVthe Hogwarts Express
p1081
aVThe Hogwarts Express
p1082
aVthem the Hogwarts Express
p1083
aVthe Hogwarts Express
p1084
aVthe Hogwarts Express
p1085
aVThe Hogwarts Express
p1086
asVThey'd
p1087
(lp1088
g1087
asVVernon
p1089
(lp1090
VVernon
p1091
aVUncle Vernon
p1092
aVUncle Vernon
p1093
aVUncle Vernon
p1094
aVUncle Vernon
p1095
aVthough Uncle Vernon
p1096
aVUncle Vernon
p1097
aVUncle Vernon
p1098
aVUncle Vernon
p1099
aVUncle Vernon
p1100
aVUncle Vernon
p1101
aVUncle Vernon
p1102
aVUncle Vernon
p1103
aVUncle Vernon
p1104
aVUncle Vernon
p1105
aVof Uncle Vernon
p1106
aVUncle Vernon
p1107
aVMr. Vernon Dursley
p1108
aVUncle Vernon the instant Harry
p1109
aVUncle Vernon nastily
p1110
aVUncle Vernon forcefully
p1111
aVUncle Vernon and Aunt Petunia
p1112
asVParselmouth
p1113
(lp1114
Va Parselmouth
p1115
aVA Parselmouth
p1116
aVa Parselmouth
p1117
aVthe only Parselmouth
p1118
aVtwo Parselmouths
p1119
asVMinistry
p1120
(lp1121
Vthe Ministry
p1122
aVthe Ministry
p1123
aVthe Ministry
p1124
aVthe Ministry
p1125
aVthe Ministry
p1126
aVThe Ministry
p1127
aVthe Ministry
p1128
aVthe Ministry
p1129
aVthe Ministry
p1130
aVthe Ministry
p1131
aVthe Ministry
p1132
aVthe Ministry
p1133
aVthe Ministry
p1134
aVMinistry
p1135
aVMinistry
p1136
asVgrimly
p1137
(lp1138
VHarry grimly
p1139
aVHagrid grimly
p1140
aVMadam Pomfrey grimly
p1141
asVGranger
p1142
(lp1143
VRon Weasley and Hermione Granger
p1144
ag86
aVHermione Granger
p1145
aVMiss Hermione Granger
p1146
aVGranger
p1147
aVMiss Granger
p1148
aVGranger
p1149
aVMiss Granger
p1150
aVGranger
p1151
aVHermione Granger
p1152
aVMiss Granger
p1153
aVthe Grangers
p1154
aVthe Grangers
p1155
aVGran
p1156
aVthe Grangers
p1157
ag1155
asVBath
p1158
(lp1159
g1158
asVsharply
p1160
(lp1161
VMr. Weasley sharply
p1162
aVMrs. Weasley sharply
p1163
aVHermione sharply
p1164
aVProfessor McGonagall sharply
p1165
aVRon sharply
p1166
aVProfessor McGonagall sharply
p1167
aVDumbledore sharply
p1168
aVRon sharply
p1169
aVRon sharply
p1170
aVMr. Malfoy sharply
p1171
asVenviously
p1172
(lp1173
VRon enviously
p1174
asVSeamus
p1175
(lp1176
g1175
aVDean and Seamus
p1177
aVSeamus
p1178
aVSeamus
p1179
aVSeamus
p1180
aVSeamus
p1181
aVSeamus
p1182
aVan ashen-faced Seamus
p1183
aVSeamus
p1184
aVSeamus
p1185
aVSeamus
p1186
aVSeamus Finnigan
p1187
aVSeamus Finnigan and Dean Thomas
p1188
aVSeamus Finnigan
p1189
aVSeamus Finnigan
p1190
aVSeamus Finnigan and Dean Thomas
p1191
aVSeamus Finnigan
p1192
aVSeamus Finnigan
p1193
aVSeamus Finnigan
p1194
aVSeamus Finnigan
p1195
aVSeamus Finnigan
p1196
aVFinnigan
p1197
aVSeamus Finnigan
p1198
aVSeamus Finnigan
p1199
aVSeamus Finnigan and Dean Thomas
p1200
aVSeamus Finnigan and Dean Thomas
p1201
asVDay
p1202
(lp1203
Va Burning Day
p1204
aVDay
p1205
asVTonight
p1206
(lp1207
g1206
aVTonight
p1208
asVfiercely
p1209
(lp1210
VPercy fiercely
p1211
aVHarry fiercely
p1212
aVHarry fiercely
p1213
aVAragog fiercely
p1214
asVQuidditch
p1215
(lp1216
g1215
ag1215
aVQuidditch
p1217
ag1217
aVQuidditch
p1218
aVQuidditch
p1219
aVQuidditch
p1220
aVQuidditch
p1221
aVQuidditch
p1222
aVQuidditch
p1223
aVthe first Quidditch
p1224
aVthe coming Quidditch
p1225
aVof a late-running Quidditch
p1226
aVQuidditch
p1227
aVnext Quidditch
p1228
aVQuidditch
p1229
asVstubbornly
p1230
(lp1231
VErnie stubbornly
p1232
asVErnie
p1233
(lp1234
g1233
aVErnie
p1235
aVErnie
p1236
aVErnie
p1237
aVof Ernie
p1238
aVErnie
p1239
aVErnie
p1240
aVErnie
p1241
aVErnie
p1242
aVErnie
p1243
aVErnie
p1244
aVThis Ernie
p1245
aVErnie
p1246
aVErnie
p1247
aVErnie
p1248
aVErnie
p1249
aVErnie swiftly
p1250
aVErnie Macmillan
p1251
aVErnie Macmillan
p1252
aVErnie and Hannah
p1253
asVMr.
p1254
(lp1255
Vall Mr.
p1256
aVall Mr.
p1257
aVMr. Dursley
p1258
aVMr. Mason....Do
p1259
aVMr. and Mrs. Mason
p1260
aVMr. Mason
p1261
aVMr. Weasley blankly
p1262
aVMr. Weasley eagerly
p1263
aVMr. Borgin
p1264
aVMr. Borgin
p1265
aVMr. Borgin
p1266
aVMr. Malfoy shortly
p1267
aVMr. Borgin
p1268
aVMr. Borgin
p1269
aVMr. Borgin
p1270
aVMr. Borgin
p1271
aVMr. Weasley delightedly
p1272
aVMr. and Mrs. Granger
p1273
aVMr. Malfoy
p1274
aVMr. and Mrs. Granger
p1275
aVMr. Malfoy
p1276
aVMr. Weasley and Mr. Malfoy apart
p1277
aVMr. Malfoy
p1278
aVMr. Weasley
p1279
aVMr. Weasley
p1280
aVMr. Weasley
p1281
aVMr. Weasley
p1282
aVthat Mr. Weasley
p1283
aVMr. Weasley
p1284
aVMr. Weasley
p1285
aVMr. Weasley
p1286
aVMr. Creevey
p1287
aVMr. Weasley and Miss Granger
p1288
aVMr. Weasley
p1289
aVMr. Weasley
p1290
aVMr. Malfoy
p1291
aVMr. Weasley
p1292
aVMr. Weasley
p1293
aVMr. Lucius Malfoy
p1294
aVMr. Weasley
p1295
aVMr. Malfoy
p1296
aVMr. Weasley
p1297
aVMr. Lucius Malfoy
p1298
aVMr. Malfoy
p1299
aVMr. Malfoy
p1300
aVMr. Weasley
p1301
aVMr. Weasley
p1302
aVMr. Weasley
p1303
aVMr. Potter
p1304
aVMr. Weasley
p1305
aVMr. Weasley
p1306
aVMr. Weasley
p1307
aVMr. Weasley
p1308
aVMr. Weasley
p1309
aVMr. Malfoy almost
p1310
aVMr. Malfoy
p1311
aVMr. Malfoy
p1312
aVMr. Malfoy sharply
p1313
aVMr. Malfoy
p1314
aVMr. Malfoy
p1315
aVMr. Malfoy
p1316
aVMr. Malfoy
p1317
aVMr. Malfoy
p1318
aVMr. Malfoy
p1319
aVMr. Malfoy
p1320
aVMr. Malfoy
p1321
aVMr. Malfoy
p1322
aVMr. Malfoy
p1323
aVMr. Malfoy
p1324
aVMr. Malfoy
p1325
asVDippet
p1326
(lp1327
VProfessor Dippet
p1328
aVProfessor Dippet
p1329
aVDippet
p1330
aVDippet
p1331
aVDippet
p1332
aVArmando Dippet
p1333
aVDippet curiously
p1334
aVDippetto
p1335
asVGryffindor
p1336
(lp1337
g1336
aVGryffindor
p1338
aVin Gryffindor
p1339
aVGryffindor
p1340
ag1338
aVin Gryffindor
p1341
ag1340
aVGryffindor
p1342
aVGryffindor
p1343
aVGryffindor
p1344
aVGryffindor
p1345
aVGryffindor
p1346
aVGryffindor
p1347
aVGryffindor
p1348
aVGryffindor
p1349
aVGryffindor
p1350
aVthe Gryffindor
p1351
aVthe Gryffindor
p1352
aVSlytherin and Gryffindor
p1353
aVGryffindor
p1354
aVGryffindor
p1355
aVGryffindor
p1356
aVGryffindor
p1357
aVGryffindor
p1358
aVthe Gryffindor
p1359
ag1358
aVthe Gryffindor
p1360
aVthe Gryffindor
p1361
aVGryffindor
p1362
aVthe Gryffindor
p1363
aVa Gryffindor
p1364
aVGryffindor
p1365
aVThe Gryffindor
p1366
aVthe Gryffindor
p1367
aVthe Gryffindor
p1368
aVthe Gryffindor
p1369
aVGryffindor
p1370
aVGryffindor
p1371
aVGryffindor
p1372
aVGryffindor
p1373
aVGryffindor
p1374
aVGryffindor
p1375
aVa true Gryffindor
p1376
aVGryffindor
p1377
aVGryffindor House
p1378
aVthe Gryffindor Beaters
p1379
aVGryffindor Tower
p1380
aVGryffindor Tower
p1381
aVGryffindor Tower
p1382
aVGryffindor Tower
p1383
aVGryffindor Tower
p1384
aVGryffindors
p1385
aVthe Gryffindors
p1386
aVthe Gryffindors
p1387
aVThe Gryffindors
p1388
aVthe Gryffindors
p1389
aVthe other Gryffindors
p1390
aVthe Gryffindors
p1391
aVThe Gryffindors
p1392
aVtwo Gryffindors down
p1393
aVthe Gryffindors
p1394
aVthe Gryffindors
p1395
aVThe Gryffindors
p1396
aVthe Gryffindors
p1397
ag1387
ag1389
ag1390
ag1392
asVMillicent
p1398
(lp1399
g1398
aVMillicent
p1400
aVMillicent
p1401
aVMillicent Bulstrode
p1402
aVMillicent Bulstrode
p1403
aVMillicent Bulstrode
p1404
aVMillicent Bulstrode
p1405
aVMillicent Bulstrode
p1406
aVMillicent Bulstrode
p1407
aVMiss Bulstrode
p1408
aVMillicent Bulstrode
p1409
aVMillicent Bulstrode
p1410
aVMillicent Bulstrode
p1411
aVMillicent Bulstrode
p1412
aVMillicent Bulstrode
p1413
aVMillicent Bulstrode
p1414
asVscornfully
p1415
(lp1416
VMalfoy scornfully
p1417
asVfuriously
p1418
(lp1419
VRon furiously
p1420
aVHagrid furiously
p1421
aVHarry furiously
p1422
aVFurious
p1423
asVHermione
p1424
(lp1425
VHermione
p1426
ag1426
aVHermione
p1427
aVHermione
p1428
aVHermione
p1429
aVHermione
p1430
aVHermione
p1431
aVHermione
p1432
aVHermione
p1433
aVHermione
p1434
aVHermione
p1435
aVHermione
p1436
aVHermione
p1437
aVHermione
p1438
aVHermione
p1439
aVHermione
p1440
ag1440
aVHermione
p1441
aVHermione
p1442
aVHermione
p1443
aVHermione
p1444
aVHermione
p1445
aVHermione
p1446
aVHermione
p1447
aVHermione
p1448
aVHermione
p1449
aVHermione
p1450
aVHermione
p1451
ag1449
ag1450
ag1451
aVHermione
p1452
aVHermione
p1453
aVHermione
p1454
aVHermione
p1455
aVHermione
p1456
aVHermione
p1457
aVHermione
p1458
aVHermione
p1459
aVHermione
p1460
aVHermione
p1461
aVHermione
p1462
aVHermione
p1463
aVHermione
p1464
aVHermione
p1465
aVHermione
p1466
aVHermione
p1467
aVHermione
p1468
aVHermione
p1469
aVHermione
p1470
aVHermione
p1471
aVHermione
p1472
ag1472
aVHermione
p1473
aVHe and Hermione
p1474
aVHermione
p1475
aVHermione
p1476
aVHermione
p1477
aVHermione
p1478
aVa spell our Hermione
p1479
aVHermione
p1480
aVHermione
p1481
aVHermione
p1482
aVHermione
p1483
aVHermione
p1484
aVHermione
p1485
aVHermione
p1486
aVHermione
p1487
aVHermione
p1488
aVHermione
p1489
aVHermione
p1490
aVHermione
p1491
aVHermione
p1492
aVHermione
p1493
aVHermione
p1494
aVHermione
p1495
aVHermione
p1496
aVHermione
p1497
aVHermione
p1498
ag1498
aVHermione
p1499
aVHermione
p1500
aVHermione
p1501
aVHermione
p1502
aVHermione
p1503
aVHermione
p1504
aVHermione
p1505
aVHermione
p1506
aVHermione
p1507
aVHermione
p1508
ag1508
aVHermione
p1509
aVHermione
p1510
aVHermione
p1511
aVHermione
p1512
aVHermione
p1513
aVHermione
p1514
aVHermione
p1515
aVHermione
p1516
aVHermione
p1517
aVHermione
p1518
aVHermione
p1519
aVHermione
p1520
aVHermione
p1521
aVHermione
p1522
aVHermione
p1523
aVHermione
p1524
aVHermione
p1525
aVHermione
p1526
aVHermione
p1527
aVHermione
p1528
aVHermione
p1529
aVHermione
p1530
aVHermione
p1531
aVHermione
p1532
aVHermione
p1533
aVHermione
p1534
aVHermione
p1535
aVHermione
p1536
aVHermione
p1537
aVHermione
p1538
aVHermione
p1539
aVHermione
p1540
aVHermione
p1541
aVHermione
p1542
aVHermione
p1543
ag1541
ag1542
ag1543
aVHermione
p1544
aVHermione
p1545
aVHermione
p1546
aVHermione
p1547
aVHermione
p1548
aVHermione
p1549
aVHermione
p1550
aVHermione
p1551
aVHermione
p1552
aVHermione
p1553
aVRon and Hermione
p1554
aVHermione
p1555
aVHermione
p1556
aVHermione
p1557
aVHermione
p1558
aVRon and Hermione
p1559
aVHermione
p1560
aVHermione
p1561
aVHermione
p1562
aVHermione
p1563
aVHermione
p1564
aVHermione
p1565
aVHermione
p1566
aVHermione
p1567
ag1565
ag1566
ag1567
aVRon and Hermione
p1568
aVHermione
p1569
aVHermione
p1570
aVHermione
p1571
aVHermione
p1572
aVHermione
p1573
aVHermione
p1574
aVHermione
p1575
aVHermione
p1576
aVHermione
p1577
aVHermione
p1578
aVHermione
p1579
aVHermione
p1580
aVHermione
p1581
aVHermione
p1582
aVRon and Hermione
p1583
aVRon and Hermione
p1584
aVHermione
p1585
aVHarry and Hermione
p1586
aVHermione
p1587
aVHermione
p1588
aVHermione
p1589
aVHermione
p1590
aVHermione
p1591
aVHermione
p1592
aVHermione
p1593
ag1593
aVHermione
p1594
aVHermione
p1595
aVHermione
p1596
aVHermione
p1597
aVHermione
p1598
aVwhich Hermione
p1599
aVwhich Hermione
p1600
aVHermione
p1601
aVHermione
p1602
aVHermione
p1603
aVHermione
p1604
aVHermione
p1605
aVHermione
p1606
aVHermione
p1607
aVRon and Hermione
p1608
aVHermione
p1609
aVHermione
p1610
aVHermione
p1611
aVHermione
p1612
aVHermione
p1613
aVHermione
p1614
aVHermione
p1615
aVHermione
p1616
aVHermione
p1617
aVHermione
p1618
aVHermione
p1619
aVHermione
p1620
aVHermione
p1621
aVHermione
p1622
aVfrom under Hermione
p1623
aVat Hermione
p1624
aVHermione
p1625
aVHermione
p1626
aVHermione
p1627
aVHermione
p1628
aVHermione
p1629
aVHermione
p1630
aVHermione
p1631
aVHermione
p1632
aVHermione
p1633
aVHermione
p1634
aVHermione
p1635
aVHermione
p1636
aVHermione
p1637
aVHermione
p1638
aVHermione
p1639
aVHermione
p1640
aVHermione
p1641
aVHermione
p1642
aVHermione
p1643
aVHermione
p1644
aVHermione
p1645
aVHermione
p1646
aVHermione
p1647
aVRon and Hermione
p1648
aVHermione
p1649
aVHermione
p1650
aVHermione
p1651
aVHermione
p1652
aVHermione
p1653
aVHermione
p1654
aVHermione
p1655
aVHermione
p1656
aVHermione
p1657
aVHermione
p1658
aVHermione
p1659
aVHermione
p1660
aVHermione
p1661
aVHermione
p1662
aVHermione
p1663
aVHermione
p1664
aVHermione
p1665
aVHermione
p1666
aVHermione
p1667
aVHermione
p1668
aVHermione
p1669
aVHermione
p1670
aVHermione
p1671
aVHermione
p1672
aVHermione
p1673
aVHermione
p1674
aVHermione
p1675
aVHermione
p1676
ag1676
aVRon and Hermione
p1677
aVHermione
p1678
aVRon Weasley and Hermione Granger
p1679
aVHermione Granger
p1680
aVMiss Hermione Granger
p1681
aVHermione anxiously
p1682
aVHermione knowledgeably
p1683
aVHermione sadly
p1684
aVHermione quickly
p1685
aVHermione cautiously
p1686
aVHermione coldly
p1687
aVHermione eagerly
p1688
aVHermione excitedly
p1689
aVHermione darkly
p1690
aVHermione brightly
p1691
aVHermione briskly
p1692
aVHermione hastily
p1693
aVHermione suddenly
p1694
aVHermione Granger
p1695
asVHooch
p1696
(lp1697
VMadam Hooch
p1698
aVMadam Hooch
p1699
aVMadam Hooch
p1700
aVMadam Hooch
p1701
aVMadam Hooch
p1702
aVMadam Hooch
p1703
aVMadam Hooch
p1704
aVMadam Hooch
p1705
aVMadam Hooch
p1706
asVdisbelievingly
p1707
(lp1708
VHarry disbelievingly
p1709
asVDobby
p1710
(lp1711
Vlong has Dobby
p1712
aVDobby
p1713
aVDobby
p1714
aVDobby
p1715
aVDobby
p1716
aVDobby
p1717
aVDobby
p1718
aVDobby
p1719
aVDobby
p1720
aVDobby
p1721
aVDobby
p1722
aVDobby
p1723
aVDobby
p1724
aVDobby
p1725
aVDobby
p1726
aVDobby
p1727
aVDobby
p1728
aVDobby
p1729
aVDobby
p1730
aVDobby
p1731
aVDobby
p1732
aVDobby
p1733
aVDobby
p1734
aVDobby
p1735
aVDobby
p1736
aVDobby
p1737
aVDobby
p1738
aVDobby
p1739
aVDobby
p1740
aVDobby
p1741
aVDobby
p1742
aVDobby
p1743
aVDobby
p1744
aVDobby
p1745
aVDobby
p1746
aVDobby
p1747
aVDobby
p1748
aVDobby
p1749
aVDobby
p1750
aVDobby
p1751
aVDobby
p1752
aVfor Dobby
p1753
aVDobby
p1754
aVDobby
p1755
aVDobby
p1756
aVDobby
p1757
aVDobby
p1758
aVDobby
p1759
aVDobby
p1760
aVthem all about Dobby
p1761
aVall about Dobby
p1762
aVDobby
p1763
aVDobby
p1764
aVDobby
p1765
aVDobby
p1766
aVDobby
p1767
aVDobby
p1768
aVDobby
p1769
aVDobby
p1770
aVDobby
p1771
aVDobby
p1772
aVDobby
p1773
aVDobby
p1774
aVDobby
p1775
aVDobby
p1776
aVDobby
p1777
aVDobby
p1778
aVDobby
p1779
aVDobby
p1780
aVDobby
p1781
aVDobby
p1782
aVDobby
p1783
aVDobby
p1784
aVDobby
p1785
aVDobby
p1786
aVDobby
p1787
aVDobby
p1788
aVBad Dobby
p1789
aVbad Dobby
p1790
aVDobby
p1791
aVDobby
p1792
aVDobby
p1793
aVDobby
p1794
aVDobby
p1795
aVDobby
p1796
aVDobby
p1797
aVDobby
p1798
aVDobby
p1799
aVDobby
p1800
aVDobby
p1801
aVDobby
p1802
aVDobby
p1803
aVDobby
p1804
aVDobby
p1805
aVDobby
p1806
aVDobby
p1807
aVDobby
p1808
aVDobby
p1809
aVDobby
p1810
aVDobby
p1811
aVDobby
p1812
aVDobby
p1813
aVDobby
p1814
aVDobby
p1815
aVDobby
p1816
aVDobby
p1817
aVDobby
p1818
aVDobby
p1819
aVDobby
p1820
aVDobby
p1821
aVDobby
p1822
aVDobby
p1823
aVDobby
p1824
aVDobby
p1825
aVDobby
p1826
aVDobby
p1827
aVDobby
p1828
aVDobby back
p1829
aVDobby almost
p1830
aVDobby reverently
p1831
aVDobby seriously
p1832
aVDobby only
p1833
aVDobby'd
p1834
aVDobby...please
p1835
aVDobby...Dobby
p1836
asVMyrtle
p1837
(lp1838
g1837
aVpoor Myrtle
p1839
aVpoor Myrtle
p1840
aVMyrtle
p1841
aVMyrtle
p1842
aVMyrtle
p1843
aVMyrtle
p1844
aVMyrtle
p1845
aVnice Myrtle
p1846
aVMyrtle
p1847
aVFat Myrtle
p1848
aVUgly Myrtle
p1849
aVMyrtle
p1850
aVMyrtle
p1851
aVMyrtle
p1852
aVMyrtle
p1853
aVMyrtle
p1854
aVMyrtle
p1855
aVMyrtle
p1856
aVMyrtle
p1857
aVMyrtle
p1858
aVMyrtle
p1859
aVMyrtle
p1860
aVMyrtle
p1861
ag1860
ag1861
aVMyrtle
p1862
aVMyrtle
p1863
aVMyrtle
p1864
aVMyrtle
p1865
ag1865
aVMyrtle
p1866
ag1866
aVMyrtle
p1867
aVMyrtle
p1868
aVMyrtle
p1869
aVMyrtle
p1870
aVMyrtle
p1871
aVMyrtle
p1872
aVMyrtle
p1873
aVMyrtle
p1874
aVMyrtle
p1875
aVMyrtle
p1876
aVMyrtle
p1877
aVMyrtle
p1878
aVMyrtle
p1879
aVMyrtle
p1880
aVMyrtle
p1881
aVMyrtle
p1882
aVMyrtle
p1883
aVMyrtle
p1884
aVMyrtle
p1885
aVMyrtle
p1886
aVMyrtle
p1887
aVMyrtle
p1888
aVMyrtle
p1889
aVMyrtle
p1890
aVMyrtle
p1891
aVMyrtle
p1892
aVMyrtle
p1893
aVMyrtle
p1894
aVMyrtle
p1895
aVMyrtle
p1896
aVMyrtle
p1897
aVMyrtle
p1898
aVMyrtle dramatically
p1899
aVMyrtle happily
p1900
aVMyrtle miserably
p1901
aVMyrtle brightly
p1902
aVMyrtle....Come
p1903
aVMyrtle dramatically
p1904
asVcoolly
p1905
(lp1906
VHarry coolly
p1907
asVDudley
p1908
(lp1909
g1908
aVDudley
p1910
aVDudley
p1911
aVDudley
p1912
aVDudley
p1913
aVDudley
p1914
ag1914
aVDudley
p1915
aVDudley
p1916
aVDudley
p1917
aVDudley
p1918
aVDudley
p1919
aVDudley
p1920
aVDudley
p1921
ag1920
ag1921
aVDudley
p1922
aVDudley
p1923
aVDudley
p1924
aVDudley
p1925
aVDudley
p1926
aVDudley
p1927
aVneither Dudley
p1928
aVDudley
p1929
aVDudley
p1930
aVDudley
p1931
aVneither Dudley
p1932
ag1929
ag1930
ag1931
aVUncle Vernon and Dudley
p1933
aVDudley
p1934
aVDudley
p1935
aVDudley
p1936
aVDudley
p1937
aVDudley
p1938
aVmy cousin Dudley
p1939
aVDudley
p1940
aVDudley
p1941
aVDudley Dursley
p1942
asVstill
p1943
(lp1944
VThe name Malfoy still
p1945
aVHead still
p1946
aVI'd still
p1947
aVRon still
p1948
aVHagrid still
p1949
aVEyes still
p1950
aVEyes still
p1951
asVKnow-Who
p1952
(lp1953
g1952
aVKnow-Who
p1954
asVMcGonagall
p1955
(lp1956
VProfessor McGonagall
p1957
aVProfessor McGonagall
p1958
aVProfessor McGonagall
p1959
aVProfessor McGonagall
p1960
aVProfessor McGonagall
p1961
aVProfessor McGonagall
p1962
aVProfessor McGonagall
p1963
aVProfessor McGonagall
p1964
aVProfessor McGonagall
p1965
aVProfessor McGonagall
p1966
aVProfessor McGonagall
p1967
aVProfessor McGonagall
p1968
aVProfessor McGonagall
p1969
aVProfessor McGonagall
p1970
aVProfessor McGonagall
p1971
aVMcGonagall
p1972
aVMcGonagall
p1973
aVProfessor McGonagall
p1974
aVhis desk.Professor McGonagall
p1975
aVProfessor McGonagall
p1976
aVProfessor McGonagall
p1977
aVProfessor McGonagall
p1978
aVProfessor McGonagall
p1979
aVProfessor McGonagall
p1980
aVRon and Professor McGonagall
p1981
aVProfessor McGonagall
p1982
aVProfessor McGonagall
p1983
aVProfessor McGonagall
p1984
aVMcGonagall
p1985
aVProfessor McGonagall
p1986
aVProfessor McGonagall
p1987
aVProfessor McGonagall
p1988
aVProfessor McGonagall
p1989
aVProfessor McGonagall
p1990
aVProfessor McGonagall
p1991
aVProfessor McGonagall
p1992
aVProfessor McGonagall
p1993
aVProfessor McGonagall
p1994
aVProfessor McGonagall
p1995
aVProfessor McGonagall
p1996
aVProfessor McGonagall
p1997
aVProfessor McGonagall
p1998
aVProfessor McGonagall
p1999
aVProfessor McGonagall
p2000
ag679
aVProfessor McGonagall sharply
p2001
aVProfessor McGonagall sharply
p2002
aVProfessor McGonagall curtly
p2003
aVProfessor McGonagall back
p2004
aVProfessor McGonagall weakly
p2005
asVBasilisk
p2006
(lp2007
Vthe Basilisk
p2008
aVthe Basilisk
p2009
aVthe Basilisk
p2010
aVthe Basilisk
p2011
asVCharm
p2012
(lp2013
Va Hover Charm
p2014
aVa clever Freezing Charm
p2015
aVAn Engorgement Charm
p2016
aVthe immensely complex Homorphus Charm
p2017
aVa Disarming Charm
p2018
aVa Tickling Charm
p2019
aVa Memory Charm
p2020
aVa Memory Charm
p2021
aVThe Memory Charm
p2022
aVa Memory Charm
p2023
aVCharm Your Own Cheese
p2024
aVCharm Your Own Cheese
p2025
asVMother
p2026
(lp2027
g2026
asVdesperately
p2028
(lp2029
VHarry desperately
p2030
aVRon desperately
p2031
aVHarry desperately
p2032
asVPotter
p2033
(lp2034
VHarry Potter
p2035
aVHarry Potter
p2036
aVHarry Potter
p2037
aVHarry Potter
p2038
aVHarry Potter
p2039
aVHarry Potter
p2040
aVHarry Potter
p2041
aVHarry Potter
p2042
aVHarry Potter
p2043
aVago...that Harry Potter
p2044
aVHarry Potter
p2045
aVHarry Potter
p2046
aVlater....Harry Potter
p2047
aVHarry Potter
p2048
aVHarry Potter
p2049
aVHarry Potter
p2050
aVHarry Potter
p2051
aVHarry Potter
p2052
aVHarry Potter
p2053
aVHarry Potter
p2054
aVangry....Dobby hoped...if Harry Potter
p2055
aVhim...Harry Potter
p2056
aVHarry Potter
p2057
aVHarry Potter
p2058
aVHarry Potter
p2059
aVHarry Potter
p2060
aVDear Mr. Potter
p2061
aVHarry Potter
p2062
aVit Harry Potter
p2063
aVHarry Potter
p2064
aVwonderful Potter
p2065
aVHarry Potter
p2066
aVHarry Potter
p2067
aVPotter
p2068
aVFamous Harry Potter
p2069
aVPotter
p2070
aVthe famous Harry Potter
p2071
aVPotter
p2072
aVHarry Potter
p2073
aVPotter
p2074
aVPotter
p2075
aVPotter
p2076
aVyoung Potter
p2077
aVPotter
p2078
aVName...Harry Potter
p2079
aVHarry Potter
p2080
aVMr. Potter
p2081
aVPotter
p2082
aVall that Potter
p2083
aVPotter
p2084
aVHarry Potter
p2085
aVHarry Potter
p2086
aVHarry Potter
p2087
aVHarry Potter
p2088
aVHarry Potter
p2089
aVHarry Potter
p2090
aVHarry Potter
p2091
aVHarry Potter
p2092
aVHarry Potter
p2093
aVHarry Potter
p2094
aVHarry Potter
p2095
aVHarry Potter
p2096
aVHarry Potter
p2097
aVHarry Potter
p2098
aVHarry Potter
p2099
aVHarry Potter
p2100
aVHarry Potter
p2101
aVHarry Potter
p2102
aVPotter
p2103
aVPotter
p2104
aVthe famous Potter
p2105
aVMalfoy and Potter
p2106
aVPotter
p2107
aVPotter
p2108
aVPotter
p2109
aVPotter
p2110
aVannoying Potter
p2111
aVother powers Potter
p2112
aVpotty wee Potter
p2113
aVPotter
p2114
aVPotter
p2115
aVPotter
p2116
aVPotter
p2117
aVPotter
p2118
aVHarry Potter
p2119
aVPotter
p2120
aVPotter
p2121
aVPotter
p2122
aVSaint Potter
p2123
aVPotter
p2124
aVArry Potter
p2125
aVPotter
p2126
aVPotter
p2127
aVHarry Potter
p2128
aVHarry Potter
p2129
aVPotter
p2130
aVPotter
p2131
aVPotter
p2132
aVPotter
p2133
aVMr. Potter
p2134
aVHarry Potter
p2135
aVgreat Harry Potter
p2136
aVHarry Potter
p2137
aVHarry Potter
p2138
aVHarry Potter
p2139
aVHarry Potter
p2140
aVfamous Harry Potter
p2141
aVHarry Potter
p2142
aVPotter
p2143
aVHarry Potter
p2144
aVthe famous Harry Potter
p2145
aVPotter
p2146
aVHarry Potter
p2147
aVHarry Potter
p2148
aVHarry Potter
p2149
aVHarry Potter
p2150
aVHarry Potter
p2151
aVHarry Potter
p2152
aVHarry Potter
p2153
aVfamous Harry Potter now
p2154
aVfamous Harry Potter now
p2155
aVHarry Potter only
p2156
aVPotter and Weasley
p2157
asVSquib
p2158
(lp2159
Va Squib
p2160
aVa Squib
p2161
aVa Squib
p2162
aVA Squib
p2163
aVa Squib
p2164
aVa Squib
p2165
aVthe Squib
p2166
asVWeekly
p2167
(lp2168
VWitch Weekly
p2169
aVof Witch Weekly
p2170
aVof Witch Weekly
p2171
asVreally
p2172
(lp2173
Vthe Chamber really
p2174
aVThe real Lockhart
p2175
aVThe real Lockhart
p2176
aVThe real Lockhart
p2177
asVFilch
p2178
(lp2179
VMr. Filch
p2180
aVArgus Filch
p2181
aVFilch
p2182
aVArgus Filch
p2183
aVFilch
p2184
aVFilch
p2185
aVevery pupil Filch
p2186
aVFilch
p2187
aVFilch
p2188
ag2185
aVevery pupil Filch
p2189
ag2187
ag2188
aVFilch
p2190
aVFilch
p2191
aVFilch
p2192
aVFilch
p2193
aVFilch
p2194
aVFilch
p2195
aVFilch
p2196
aVFilch
p2197
aVFilch
p2198
aVhim Filch
p2199
aVFilch
p2200
aVFilch
p2201
aVFilch
p2202
aVFilch
p2203
aVFilch
p2204
aVFilch
p2205
aVFilch
p2206
aVboth Filch
p2207
aVArgus Filch
p2208
aVFilch
p2209
aVFilch
p2210
aVFilch
p2211
aVFilch
p2212
aVFilch
p2213
aVFilch
p2214
aVFilch
p2215
aVFilch
p2216
aVFilch
p2217
aVFilch
p2218
aVFilch
p2219
aVFilch
p2220
aVFilch
p2221
aVFilch
p2222
aVPetrify Filch
p2223
aVFilch
p2224
aVa few paces past Filch
p2225
aVneither Filch
p2226
aVFilch
p2227
aVFilch
p2228
aVFilch
p2229
aVFilch
p2230
aVFilch
p2231
aVFilch
p2232
aVFilch
p2233
aVFilch back
p2234
aVFilch back
p2235
aVArgus
p2236
aVArgus
p2237
aVArgus
p2238
aVArgus
p2239
aVArgus Filch
p2240
aVArgus Filch
p2241
aVArgus Filch
p2242
asVnervously
p2243
(lp2244
VHarry nervously
p2245
aVHarry nervously
p2246
aVRon nervously
p2247
aVHermione nervously
p2248
asVYou-Know-Who
p2249
(lp2250
g2249
aVYou-Know-Who
p2251
aVYou-Know-Who
p2252
aVYou-Know-Who
p2253
aVYou-Know-Who
p2254
aVYou-Know-Who
p2255
aVYou-Know-Who
p2256
asVAragog
p2257
(lp2258
g2257
aVAragog
p2259
aVAragog
p2260
aVAragog
p2261
aVAragog
p2262
aVAragog
p2263
aVAragog
p2264
aVAragog
p2265
aVAragog
p2266
aVAragog
p2267
aVhatching Aragog
p2268
aVabout everything Aragog
p2269
aVAragog
p2270
aVhatching Aragog
p2271
aVabout everything Aragog
p2272
ag2270
aVAragog
p2273
aVAragog
p2274
aVAragog fretfully
p2275
aVAragog fretfully
p2276
aVAragog fiercely
p2277
aVAragog slowly
p2278
aVAragog fretfully
p2279
aVAragog fretfully
p2280
asVuncertainly
p2281
(lp2282
VRon uncertainly
p2283
asVBrazil
p2284
(lp2285
g2284
asValready
p2286
(lp2287
VDumbledore already
p2288
asVBeaters
p2289
(lp2290
Vtwo Beaters
p2291
aVthe Gryffindor Beaters
p2292
asVHe-Who-Must-Not-Be-Named
p2293
(lp2294
g2293
aVHe-Who-Must-Not-Be-Named
p2295
aVthose of He-Who-Must-Not-Be-Named
p2296
aVHe-Who-Must-Not-Be-Named
p2297
aVHe-Who-Must-Not-Be-Named
p2298
aVHe-Who-Must-Not-Be-Named
p2299
aVHe-Who-Must-Not-Be-Named
p2300
asVthoughtfully
p2301
(lp2302
VDumbledore thoughtfully
p2303
asVMinerva
p2304
(lp2305
g2304
aVMinerva
p2306
aVMinerva
p2307
aVMinerva
p2308
asVParseltongue
p2309
(lp2310
g2309
aVParseltongue
p2311
ag2311
aVParseltongue
p2312
aVI understand Parseltongue
p2313
aVParseltongue
p2314
aVParseltongue
p2315
aVParseltongue
p2316
aVParseltongue
p2317
aVParseltongue
p2318
aVParseltongue
p2319
aVParseltongue
p2320
asVPatil
p2321
(lp2322
VParvati Patil
p2323
asVwonderingly
p2324
(lp2325
VMadam Pomfrey wonderingly
p2326
aVWonder
p2327
aVno wonder Justin
p2328
aVWonder
p2329
asVUncle
p2330
(lp2331
VUncle Vernon heartily
p2332
aVUncle Vernon forcefully
p2333
aVUncle Vernon
p2334
aVUncle Vernon
p2335
aVUncle Vernon
p2336
aVUncle Vernon
p2337
aVUncle Vernon
p2338
aVUncle Vernon
p2339
aVUncle Vernon
p2340
aVUncle Vernon
p2341
aVUncle Vernon
p2342
aVUncle Vernon
p2343
ag1093
ag1095
ag1097
ag1099
ag1101
ag1103
ag1105
ag1107
aVUncle Vernon heartily
p2344
ag1109
aVUncle Vernon viciously
p2345
aVUncle Vernon and Dudley
p2346
aVUncle Vernon the instant Harry
p2347
aVUncle Vernon the instant Harry
p2348
asVfriend
p2349
(lp2350
VMy friend Ron
p2351
aVhis friend Ron
p2352
aVErnie and his friend Hannah
p2353
aVErnie and his friend Hannah
p2354
aVmy friend Hermione
p2355
asVJustin
p2356
(lp2357
g2356
aVJustin
p2358
aVat Justin
p2359
aVJustin
p2360
aVJustin
p2361
aVJustin
p2362
aVJustin
p2363
aVJustin
p2364
aVJustin
p2365
aVJustin
p2366
aVJustin
p2367
aVJustin
p2368
ag2366
ag2367
ag2368
aVJustin
p2369
aVJustin
p2370
aVJustin
p2371
aVJustin
p2372
aVJustin
p2373
ag2373
aVJustin
p2374
aVJustin
p2375
aVthose on Justin
p2376
aVJustin
p2377
aVJustin
p2378
aVJustin
p2379
aVJustin happily
p2380
aVJustin actually
p2381
aVJustin Finch-Fletchley
p2382
aVJustin Finch-Fletchley
p2383
aVJustin Finch-Fletchley
p2384
aVJustin and Nearly Headless Nick
p2385
ag460
aVJustin and Hermione
p2386
asVMortlake
p2387
(lp2388
g2387
asVdelightedly
p2389
(lp2390
VRon delightedly
p2391
asVR-Riddle
p2392
(lp2393
g2392
asVColin
p2394
(lp2395
g2394
aVColin
p2396
aVColin
p2397
aVColin
p2398
aVColin
p2399
aVColin
p2400
aVColin
p2401
aVColin
p2402
aVColin
p2403
aVColin
p2404
aVColin
p2405
aVColin
p2406
aVColin
p2407
aVColin
p2408
aVColin
p2409
aVColin
p2410
aVColin
p2411
aVColin
p2412
aVColin
p2413
aVColin
p2414
aVColin
p2415
aVColin
p2416
aVof Colin
p2417
aVColin
p2418
aVat Colin
p2419
aVColin
p2420
aVon Colin
p2421
aVColin
p2422
aVColin
p2423
aVColin Creevey eagerly
p2424
aVhim and Colin Creevey
p2425
aVColin breathlessly
p2426
aVColin and Dobby
p2427
aVColin Creevey
p2428
aVColin Creevey
p2429
aVMrs. Norris and Colin Creevey
p2430
asVFletcher
p2431
(lp2432
Vold Mundungus Fletcher
p2433
asVDursleys
p2434
(lp2435
Vthe Dursleys
p2436
aVthe Dursleys
p2437
aVthe Dursleys
p2438
aVThe Dursleys
p2439
aVthe Dursleys
p2440
aVthe Dursleys
p2441
aVthe Dursleys
p2442
aVthe Dursleys
p2443
aVThe Dursleys
p2444
aVthe Dursleys
p2445
aVthe Dursleys
p2446
aVThe Dursleys
p2447
aVthe Dursleys
p2448
aVthe Dursleys
p2449
aVthe Dursleys
p2450
aVthe Dursleys
p2451
aVThe Dursleys
p2452
aVthe Dursleys
p2453
aVthe Dursleys
p2454
aVthe Dursleys
p2455
aVthe Dursleys
p2456
aVthe Dursleys
p2457
aVthe Dursleys
p2458
aVthe Dursleys
p2459
aVthe Dursleys
p2460
aVthe Dursleys
p2461
aVThe Dursleys
p2462
aVThe Dursleys
p2463
aVthe Dursleys
p2464
aVthe Dursleys
p2465
aVthe Dursleys
p2466
aVthe Dursleys
p2467
aVThe Dursleys
p2468
aVthe Dursleys
p2469
aVthe Dursleys
p2470
aVThe Dursleys
p2471
aVThe Dursleys
p2472
aVthe Dursleys
p2473
aVthe Dursleys
p2474
aVthe Dursleys
p2475
aVthe Dursleys
p2476
aVthe Dursleys
p2477
aVMr. Vernon Dursley
p2478
aVMrs. Dursley
p2479
aVMr. Dursley
p2480
aVDudley Dursley
p2481
aVMr. Vernon Dursley
p2482
asVbet
p2483
(lp2484
VI bet Dumbledore
p2485
asVurgently
p2486
(lp2487
VHarry urgently
p2488
aVHagrid urgently
p2489
aVHarry urgently
p2490
aVHarry urgently
p2491
asVFather
p2492
(lp2493
g2492
aVFather
p2494
aVFather
p2495
aVFather
p2496
aVFather
p2497
aVFather
p2498
asVgently
p2499
(lp2500
VDumbledore gently
p2501
asVWizardry
p2502
(lp2503
g2502
ag2502
aVWizardry
p2504
aVWizardry
p2505
aVUnderage Wizardry
p2506
aVWizardry
p2507
aVWizardry
p2508
asVHe'd
p2509
(lp2510
g2509
aVHe'd
p2511
ag2511
aVHe'd
p2512
aVHe'd almost
p2513
aVHe'd almost
p2514
aVHe'd never
p2515
aVHe'd probably
p2516
aVHe'd probably
p2517
asVgloomily
p2518
(lp2519
VRon gloomily
p2520
asVMail
p2521
(lp2522
g2521
asVPerkins
p2523
(lp2524
g2523
asVmatter-of-factly
p2525
(lp2526
VHermione matter-of-factly
p2527
asVPower
p2528
(lp2529
g2528
aVpowers Dumbledore
p2530
asVClub
p2531
(lp2532
Va Dueling Club
p2533
aVthe Dueling Club
p2534
aVthe Dueling Club
p2535
aVthe Dueling Club
p2536
asVMinister
p2537
(lp2538
g2537
aVthe Minister
p2539
aVthe Minister
p2540
asVHall
p2541
(lp2542
Vthe Great Hall
p2543
aVthe Great Hall
p2544
aVat the Great Hall
p2545
aVthe Hall
p2546
aVat the Great Hall
p2547
aVthe Hall
p2548
aVthe Great Hall
p2549
aVthe Great Hall
p2550
aVof the Great Hall
p2551
aVthe Great Hall
p2552
aVthe Great Hall
p2553
aVGreat Hall
p2554
aVof the Great Hall
p2555
aVthe Great Hall
p2556
aVthe Great Hall
p2557
aVThe Great Hall
p2558
aVThe Great Hall
p2559
aVof the Great Hall
p2560
aVin the Great Hall
p2561
aVthe Great Hall
p2562
aVthe Great Hall
p2563
aVthe Great Hall
p2564
aVthe Great Hall
p2565
aVthe Great Hall
p2566
aVthe Halloween
p2567
aVHalloween
p2568
aVthis Halloween
p2569
aVthe time Halloween
p2570
aVHalloween
p2571
aVHalloween
p2572
aVHalloween
p2573
asVheadmaster
p2574
(lp2575
Vthe greatest headmaster Hogwarts
p2576
asVnothing
p2577
(lp2578
Vsure nothing Snape
p2579
asVMommy
p2580
(lp2581
Vyour Mommy
p2582
aVthe moment Ron
p2583
aVthe moment Harry
p2584
asVHowler
p2585
(lp2586
Vme a Howler
p2587
aVa Howler
p2588
aVthe Howler
p2589
aVthe Howler
p2590
aVthe Howler
p2591
aVThe Howler
p2592
aVanother Howler back
p2593
asVNorris
p2594
(lp2595
VMrs. Norris
p2596
aVMrs. Norris
p2597
aVMrs. Norris
p2598
aVMrs. Norris
p2599
aVMrs. Norris
p2600
aVMrs. Norris
p2601
aVMrs. Norris
p2602
aVMrs. Norris
p2603
aVMrs. Norris
p2604
aVMrs. Norris
p2605
aVMrs. Norris
p2606
aVMrs. Norris
p2607
aVMrs. Norris
p2608
aVMrs. Norris
p2609
aVMrs. Norris
p2610
aVMrs. Norris
p2611
aVrevive Mrs. Norris
p2612
aVMrs. Norris
p2613
aVMrs. Norris
p2614
aVMrs. Norris
p2615
aVMrs. Norris
p2616
aVMrs. Norris
p2617
aVMrs. Norris
p2618
aVMrs. Norris and Colin Creevey
p2619
aVMrs. Norris and Colin Creevey
p2620
aVMrs. Norris back
p2621
aVyou Mrs. Norris only
p2622
asVthirteen-year-old
p2623
(lp2624
Vthe thirteen-year-old Hagrid
p2625
aVdear old Draco
p2626
aVold Head Boys
p2627
aVtiny old Professor Flitwick squarely
p2628
aVold Dumbledore
p2629
aVtiny old Professor Flitwick squarely
p2630
aVtiny old Professor Flitwick squarely
p2631
aVold Dobby
p2632
aVa fifth year Harry
p2633
asVHornby
p2634
(lp2635
VOlive Hornby
p2636
aVOlive Hornby
p2637
asVearth
p2638
(lp2639
Vof earth
p2640
aVof earth
p2641
aVof damp earth
p2642
aVof the earth
p2643
aVof the earth
p2644
aVof the earth
p2645
aVin earth
p2646
aVof the earth
p2647
aVin earth
p2648
aVon earth
p2649
aVon earth
p2650
aVon earth
p2651
aVon earth
p2652
asVHat
p2653
(lp2654
g2653
ag2653
aVthe Sorting Hat
p2655
aVthe Sorting Hat
p2656
aVthe Sorting Hat
p2657
aVThe Sorting Hat
p2658
aVthe Sorting Hat
p2659
aVThe Sorting Hat
p2660
aVthe Sorting Hat
p2661
aVthe Sorting Hat
p2662
aVHat
p2663
aVuse Fawkes or the Sorting Hat
p2664
aVFawkes and the Sorting Hat
p2665
aVFawkes and the Sorting Hat
p2666
aVthe Sorting Hat
p2667
aVthe Sorting Hat
p2668
aVthe Sorting Hat
p2669
aVthe Sorting Hat
p2670
aVthe Sorting Hat
p2671
aVit the Sorting Hat
p2672
aVthe Sorting Hat
p2673
aVthe Sorting Hat
p2674
aVThe Sorting Hat
p2675
aVThe Sorting Hat
p2676
aVthe Sorting Hat
p2677
asVFang
p2678
(lp2679
g2678
aVFang
p2680
aVFang
p2681
aVfeed Fang
p2682
aVFang
p2683
aVFang
p2684
aVFang
p2685
aVFang
p2686
aVFang
p2687
aVFang
p2688
aVFang
p2689
aVFang
p2690
ag2689
ag2690
aVFang
p2691
aVFang
p2692
aVFang
p2693
aVFang
p2694
aVFang
p2695
aVFang
p2696
aVRon and Fang
p2697
aVFang
p2698
ag2695
ag2696
aVRon and Fang
p2699
ag2698
aVFang
p2700
aVFang
p2701
aVFang
p2702
aVFang
p2703
ag2701
ag2702
ag2703
aVFang
p2704
aVFang suddenly
p2705
asVFred
p2706
(lp2707
g2706
aVFred
p2708
aVFred
p2709
aVFred
p2710
aVFred
p2711
aVFred
p2712
aVFred
p2713
aVFred
p2714
aVFred
p2715
aVFred
p2716
aVFred
p2717
aVFred
p2718
aVFred
p2719
aVFred
p2720
aVFred
p2721
aVFred
p2722
aVFred
p2723
aVFred
p2724
aVFred
p2725
aVFred
p2726
aVFred
p2727
aVFred
p2728
aVFred
p2729
aVFred
p2730
aVFred
p2731
aVFred
p2732
aVRon and Fred
p2733
aVFred
p2734
aVFred
p2735
aVFred
p2736
aVFred
p2737
aVFred
p2738
aVFred
p2739
aVFred
p2740
aVFred
p2741
aVFred
p2742
aVFred
p2743
aVFred
p2744
aVFred
p2745
aVFred
p2746
aVFred
p2747
aVFred
p2748
ag2748
aVFred
p2749
aVFred
p2750
aVFred
p2751
aVFred
p2752
aVFred
p2753
aVFred
p2754
aVFred
p2755
aVFred
p2756
ag2756
aVFred
p2757
aVFred
p2758
aVFred
p2759
aVFred
p2760
aVFred
p2761
aVFred
p2762
aVFred
p2763
ag2763
aVFred
p2764
aVevery time Fred
p2765
aVFred
p2766
aVFred
p2767
aVFred
p2768
aVFred
p2769
aVFred
p2770
ag2770
aVFred
p2771
aVFred
p2772
aVFred and George
p2773
aVFred and George
p2774
aVFred and George
p2775
aVFred finally
p2776
aVFred and George
p2777
aVFred eagerly
p2778
aVFred and George
p2779
aVFred and George
p2780
aVyou see Fred and George
p2781
aVFred and George together
p2782
aVFred and George
p2783
aVFred and George
p2784
aVFred and George
p2785
aVFred or George
p2786
aVFred and George
p2787
aVFred and George
p2788
aVFred and George
p2789
aVFred and George
p2790
aVFred and George Weasley
p2791
aVFred and George Weasley
p2792
aVFred Weasley
p2793
aVFred and George
p2794
aVFred and George
p2795
aVFred and George
p2796
aVFred and George
p2797
aVFred and George Weasley
p2798
aVFred and George Weasley
p2799
aVFred and George Weasley
p2800
aVFred and George
p2801
aVFred Weasley
p2802
aVFred Weasley
p2803
aVFred and George
p2804
aVFred and George Weasley
p2805
aVFred and George
p2806
aVFred and George
p2807
aVFred and George
p2808
aVFred and George
p2809
aVFred and George
p2810
aVFred and George
p2811
aVFred and George
p2812
aVFred and George
p2813
asVonly
p2814
(lp2815
VHarry only
p2816
aVHarry only
p2817
aVDobby only
p2818
aVHarry Potter only
p2819
aVyou Mrs. Norris only
p2820
aVthe only Parselmouth
p2821
asVHogwarts
p2822
(lp2823
g2822
ag2822
aVHogwarts
p2824
aVHogwarts
p2825
aVHogwarts
p2826
ag2824
ag2825
ag2826
aVHogwarts
p2827
ag2827
aVHogwarts
p2828
aVHogwarts
p2829
aVHogwarts
p2830
aVHogwarts
p2831
aVHogwarts
p2832
aVHogwarts
p2833
aVHogwarts
p2834
aVHogwarts
p2835
aVHogwarts
p2836
aVat Hogwarts
p2837
aVat Hogwarts
p2838
aVHogwarts
p2839
aVHogwarts
p2840
aVHogwarts
p2841
aVthe Hogwarts
p2842
aVHogwarts
p2843
aVHogwarts
p2844
ag2844
aVHogwarts
p2845
aVHogwarts
p2846
aVthe famous Hogwarts
p2847
aVHogwarts
p2848
aVHogwarts
p2849
aVHogwarts
p2850
aVa Hogwarts
p2851
aVHogwarts
p2852
aVHogwarts
p2853
aVHogwarts
p2854
aVHogwarts
p2855
aVHogwarts
p2856
aVHogwarts
p2857
aVHogwarts
p2858
aVHogwarts
p2859
aVHogwarts
p2860
aVHogwarts
p2861
ag2860
ag2861
aVHogwarts
p2862
aVHogwarts
p2863
aVHogwarts
p2864
aVHogwarts
p2865
aVHogwarts
p2866
aVHogwarts
p2867
aVThe least Hogwarts
p2868
aVHogwarts
p2869
aVHogwarts
p2870
aVHogwarts
p2871
aVHogwarts
p2872
aVHogwarts
p2873
aVHogwarts
p2874
aVat Hogwarts
p2875
aVHogwarts
p2876
aVthe Hogwarts
p2877
aVHogwarts
p2878
aVHogwarts
p2879
aVHogwarts
p2880
aVthe Hogwarts Express
p2881
aVHogwarts again
p2882
aVHogwarts ever
p2883
aVthe Hogwarts Express
p2884
aVthe Hogwarts Express
p2885
aVof Hogwart
p2886
asVexcitedly
p2887
(lp2888
VNick excitedly
p2889
aVHermione excitedly
p2890
aVRon excitedly
p2891
aVWood excitedly
p2892
asVSnitch
p2893
(lp2894
Vthe Golden Snitch
p2895
aVthe Snitch
p2896
aVthe Snitch
p2897
aVSnitch
p2898
aVfor the Snitch
p2899
aVthe Snitch
p2900
aVthe Snitch
p2901
aVthe Snitch
p2902
aVthe Golden Snitch
p2903
aVthe Snitch
p2904
aVthe Golden Snitch
p2905
aVthe Snitch
p2906
aVthe cold Snitch
p2907
aVthe Snitch
p2908
aVthe Snitch
p2909
asVheartily
p2910
(lp2911
VWood heartily
p2912
asVMagic
p2913
(lp2914
g2913
aVMagic
p2915
aVMagic
p2916
aVMagic
p2917
aVMagic
p2918
aVDark Magic
p2919
aVMagic
p2920
aVMagic
p2921
ag2920
ag2921
aVMagic
p2922
aVDark Magic
p2923
aVDark Magic
p2924
aVMagic
p2925
aVMagic
p2926
aVMagic
p2927
aVMagic
p2928
aVMagic
p2929
aVMagic
p2930
aVDark Magic
p2931
asVnearly
p2932
(lp2933
VHarry nearly
p2934
asVtonelessly
p2935
(lp2936
VHarry tonelessly
p2937
asVLockhart
p2938
(lp2939
g2938
aVLockhart
p2940
aVall Lockhart
p2941
aVLockhart
p2942
aVLockhart
p2943
aVLockhart
p2944
aVLockhart
p2945
aVLockhart
p2946
aVLockhart
p2947
aVLockhart
p2948
aVLockhart
p2949
aVLockhart
p2950
aVLockhart
p2951
aVLockhart
p2952
aVLockhart
p2953
aVLockhart
p2954
aVThat Lockhart
p2955
aVher read Lockhart
p2956
aVall Lockhart
p2957
aVLockhart
p2958
aVLockhart
p2959
aVLockhart
p2960
aVLockhart
p2961
aVLockhart
p2962
aVLockhart
p2963
aVLockhart
p2964
aVLockhart
p2965
aVLockhart
p2966
aVGilderoy Lockhart
p2967
aVGilderoy Lockhart
p2968
aVGilderoy Lockhart
p2969
aVGilderoy Lockhart
p2970
aVGilderoy Lockhart
p2971
aVLockhart
p2972
aVLockhart
p2973
aVLockhart
p2974
aVLockhart
p2975
aVLockhart
p2976
aVLockhart
p2977
aVLockhart
p2978
aVLockhart
p2979
aVLockhart
p2980
aVLockhart
p2981
aVLockhart
p2982
aVLockhart
p2983
aVLockhart
p2984
aVGilderoy Lockhart
p2985
aVblack-and-white Lockhart
p2986
aVLockhart
p2987
aVGilderoy Lockhart
p2988
aVLockhart
p2989
aVLockhart
p2990
aVLockhart
p2991
aVLockhart
p2992
aVLockhart
p2993
aVLockhart
p2994
aVLockhart
p2995
aVLockhart
p2996
aVLockhart
p2997
aVLockhart
p2998
aVLockhart
p2999
aVLockhart
p3000
aVLockhart
p3001
aVLockhart
p3002
aVLockhart
p3003
aVfor Lockhart
p3004
aVfor Lockhart
p3005
aVLockhart
p3006
aVLockhart
p3007
aVLockhart
p3008
aVLockhart
p3009
aVLockhart
p3010
aVLockhart
p3011
aVLockhart
p3012
ag3010
ag3011
ag3012
aVLockhart
p3013
aVLockhart
p3014
aVLockhart
p3015
aVLockhart
p3016
aVLockhart
p3017
aVLockhart
p3018
aVfrom Lockhart
p3019
aVLockhart
p3020
aVLockhart
p3021
aVLockhart
p3022
aVLockhart
p3023
aVLockhart
p3024
aVLockhart
p3025
aVLockhart
p3026
aVLockhart
p3027
aVLockhart
p3028
aVLockhart
p3029
aVLockhart
p3030
aVLockhart
p3031
aVLockhart
p3032
ag3032
aVGilderoy Lockhart
p3033
aVLockhart
p3034
aVLockhart
p3035
aVLockhart
p3036
aVLockhart
p3037
aVLockhart
p3038
aVLockhart
p3039
aVLockhart
p3040
aVLockhart
p3041
aVLockhart
p3042
aVLockhart
p3043
aVLockhart
p3044
aVLockhart
p3045
aVLockhart
p3046
aVLockhart
p3047
aVLockhart
p3048
aVLockhart
p3049
aVLockhart
p3050
aVLockhart
p3051
aVLockhart
p3052
aVLockhart
p3053
aVLockhart
p3054
aVLockhart
p3055
aVGilderoy Lockhart
p3056
aVLockhart
p3057
aVLockhart
p3058
aVLockhart
p3059
aVLockhart
p3060
aVLockhart
p3061
aVLockhart
p3062
aVthe way Lockhart
p3063
aVLockhart
p3064
aVLockhart
p3065
aVLockhart
p3066
aVLockhart
p3067
aVLockhart
p3068
aVLockhart
p3069
aVLockhart
p3070
aVLockhart
p3071
aVGilderoy Lockhart
p3072
aVLockhart
p3073
aVLockhart
p3074
aVLockhart
p3075
aVLockhart
p3076
aVLockhart
p3077
aVLockhart
p3078
aVLockhart
p3079
aVLockhart
p3080
aVLockhart
p3081
aVLockhart
p3082
aVLockhart
p3083
aVLockhart
p3084
aVLockhart
p3085
aVLockhart
p3086
aVLockhart
p3087
aVLockhart
p3088
aVLockhart
p3089
aVLockhart
p3090
aVLockhart
p3091
aVLockhart
p3092
aVLockhart
p3093
aVLockhart
p3094
aVLockhart
p3095
aVLockhart
p3096
aVLockhart
p3097
aVLockhart
p3098
aVLockhart
p3099
aVLockhart
p3100
aVLockhart
p3101
ag3101
aVLockhart
p3102
aVGilderoy Lockhart
p3103
aVLockhart
p3104
aVLockhart
p3105
aVLockhart
p3106
aVLockhart
p3107
aVLockhart
p3108
aVLockhart
p3109
aVGilderoy Lockhart
p3110
aVLockhart
p3111
aVLockhart
p3112
aVLockhart
p3113
aVLockhart
p3114
aVLockhart
p3115
aVLockhart
p3116
aVLockhart
p3117
aVLockhart
p3118
aVLockhart
p3119
aVLockhart
p3120
aVLockhart
p3121
aVProfessor Lockhart
p3122
aVLockhart paternally
p3123
aVLockhart warmly
p3124
aVLockhart soothingly
p3125
aVLockhart and Snape
p3126
aVLockhart graciously
p3127
aVLockhart weakly
p3128
aVthe Lockharts
p3129
aVall the Lockharts
p3130
ag3129
asVAlley
p3131
(lp3132
VDiagon Alley
p3133
aVDiagon Alley
p3134
aVDiagon Alley
p3135
aVD-Dia-gon Alley
p3136
aVDiagon Alley
p3137
aVDiagon Alley
p3138
aVKnockturn Alley
p3139
aVKnockturn Alley
p3140
aVDiagon Alley
p3141
aVKnockturn Alley
p3142
aVKnockturn Alley
p3143
aVKnockturn Alley
p3144
aVKnockturn Alley
p3145
aVKnockturn Alley
p3146
aVKnockturn Alley
p3147
aVDiagon Alley
p3148
aVHagrid down Knockturn Alley
p3149
asVDraco
p3150
(lp3151
g3150
ag3150
aVDraco
p3152
aVDraco
p3153
aVDraco
p3154
aVDraco
p3155
aVDraco
p3156
aVDraco
p3157
aVDraco
p3158
aVDraco
p3159
aVDraco
p3160
aVDraco
p3161
aVDraco
p3162
aVDraco
p3163
aVDraco
p3164
aVDraco
p3165
ag3165
aVDraco Malfoy
p3166
aVDraco Malfoy
p3167
aVDraco Malfoy
p3168
aVDraco Malfoy
p3169
aVDraco Malfoy
p3170
aVDraco Malfoy
p3171
aVDraco Malfoy
p3172
aVDraco Malfoy
p3173
aVDraco Malfoy
p3174
asVmiserably
p3175
(lp3176
VRon miserably
p3177
aVMyrtle miserably
p3178
aVHarry miserably
p3179
asVhoarsely
p3180
(lp3181
VRon hoarsely
p3182
aVRon hoarsely
p3183
asVflatly
p3184
(lp3185
VHarry flatly
p3186
asVNimbus
p3187
(lp3188
Vtop-of-the-line Nimbus
p3189
aVtop-of-the-line Nimbus
p3190
aVa Nimbus
p3191
aVthe words Nimbus
p3192
aVthose new Nimbus
p3193
aVseven free Nimbus
p3194
aVNimbus Two Thousand
p3195
aVhis Nimbus Two Thousand
p3196
aVhis Nimbus Two Thousand
p3197
aVNimbus Two Thousand
p3198
aVTwo Thousand
p3199
aVhis Nimbus Two Thousand
p3200
aVTwo Thousand
p3201
aVTwo Thousand
p3202
aVTwo Thousand
p3203
aVhis Nimbus Two Thousand
p3204
asVaway
p3205
(lp3206
Vthe Bludgers away
p3207
aVRon away
p3208
aVHagrid away
p3209
asVO.W.L.s
p3210
(lp3211
Vtwelve O.W.L.s
p3212
aVthirty O.W.L.s
p3213
asVweapons
p3214
(lp3215
Vthe best weapons Dumbledore
p3216
asVMalfoy
p3217
(lp3218
VMalfoy
p3219
aVMalfoy
p3220
aVMalfoy
p3221
aVMalfoy
p3222
ag3222
aVMalfoy
p3223
aVMalfoy
p3224
aVMalfoy
p3225
aVMister Malfoy
p3226
aVMalfoy
p3227
aVMalfoy
p3228
aVMalfoy
p3229
aVMalfoy
p3230
aVMalfoy
p3231
aVMalfoy
p3232
aVMalfoy
p3233
aVno Malfoy
p3234
aVMalfoy
p3235
aVMalfoy
p3236
aVMalfoy
p3237
aVMalfoy
p3238
aVMalfoy
p3239
aVMalfoy
p3240
aVyou Lucius Malfoy
p3241
aVMalfoy
p3242
aVMalfoy
p3243
aVMalfoy
p3244
aVMalfoy
p3245
aVMalfoy
p3246
aVMalfoy
p3247
aVMalfoy
p3248
aVMalfoy
p3249
aVMalfoy
p3250
ag3250
aVMalfoy
p3251
aVMalfoy
p3252
aVMalfoy
p3253
aVMalfoy
p3254
aVMalfoy
p3255
aVMalfoy
p3256
aVMalfoy
p3257
aVMalfoy
p3258
aVMalfoy
p3259
aVMalfoy
p3260
aVMalfoy
p3261
aVMalfoy
p3262
aVMalfoy
p3263
aVMalfoy
p3264
ag3264
aVMalfoy
p3265
aVMalfoy
p3266
aVMalfoy
p3267
aVMalfoy
p3268
aVMalfoy
p3269
ag3265
ag3266
ag3267
ag3268
ag3269
aVMalfoy
p3270
aVMalfoy
p3271
aVMalfoy
p3272
aVof Malfoy
p3273
aVMalfoy
p3274
aVMalfoy
p3275
ag3275
aVMalfoy
p3276
aVMalfoy
p3277
aVMalfoy
p3278
aVMalfoy
p3279
aVMalfoy
p3280
aVMalfoy
p3281
aVMalfoy
p3282
aVMalfoy
p3283
aVMalfoy
p3284
aVMalfoy
p3285
aVMalfoy
p3286
aVMalfoy
p3287
aVMalfoy
p3288
aVMalfoy
p3289
aVwhatever Malfoy
p3290
aVMalfoy
p3291
aVMalfoy
p3292
aVDraco Malfoy
p3293
aVMalfoy
p3294
aVMalfoy
p3295
aVMalfoy
p3296
aVMalfoy
p3297
aVMalfoy
p3298
aVMalfoy
p3299
aVMalfoy
p3300
aVMalfoy
p3301
aVMalfoy
p3302
aVMalfoy
p3303
aVMalfoy
p3304
aVMalfoy
p3305
aVMalfoy
p3306
aVMalfoy
p3307
aVMalfoy
p3308
aVMalfoy
p3309
aVMalfoy
p3310
aVMalfoy
p3311
aVMalfoy
p3312
aVMalfoy
p3313
aVMalfoy
p3314
aVMalfoy
p3315
aVMalfoy
p3316
aVMalfoy
p3317
aVMalfoy
p3318
aVDraco Malfoy
p3319
aVMalfoy
p3320
aVMalfoy
p3321
aVMalfoy
p3322
aVMalfoy
p3323
aVMalfoy
p3324
aVMalfoy
p3325
aVMalfoy
p3326
aVMalfoy
p3327
aVMalfoy
p3328
aVMalfoy
p3329
aVMr. Malfoy
p3330
aVMalfoy
p3331
aVMr. Malfoy
p3332
aVMalfoy
p3333
aVDraco Malfoy
p3334
aVMalfoy
p3335
aVDraco Malfoy
p3336
ag3335
aVMalfoy
p3337
aVMalfoy
p3338
aVMalfoy
p3339
aVMalfoy
p3340
aVMalfoy
p3341
aVMalfoy
p3342
aVDraco Malfoy
p3343
aVMr. Malfoy
p3344
aVMr. Malfoy
p3345
aVMr. Malfoy
p3346
aVMr. Malfoy
p3347
aVMr. Malfoy
p3348
aVMr. Malfoy
p3349
aVLucius Malfoy
p3350
aVMr. Malfoy
p3351
aVLucius Malfoy
p3352
aVMr. Malfoy
p3353
aVLucius Malfoy
p3354
aVMr. Malfoy
p3355
aVMr. Malfoy
p3356
aVLucius Malfoy
p3357
aVMr. Malfoy
p3358
aVMr. Malfoy
p3359
aVLucius Malfoy
p3360
aVMr. Malfoy
p3361
aVMr. Malfoy
p3362
aVLucius Malfoy
p3363
aVLucius Malfoy
p3364
aVDraco Malfoy usually
p3365
aVMr. Malfoy coldly
p3366
aVMr. Weasley and Mr. Malfoy apart
p3367
aVHrry and Malfoy barely
p3368
aVMalfoy impatiently
p3369
aVMalfoy slowly
p3370
aVMalfoy lazily
p3371
aVMalfoy loudly
p3372
aVMr. Malfoy sharply
p3373
aVMr. Malfoy slowly
p3374
aVthe Malfoys
p3375
aVthe Malfoys
p3376
aVcleaning Mr. Malfoys
p3377
aVcleaning Mr. Malfoys
p3378
asVabruptly
p3379
(lp3380
VHagrid abruptly
p3381
aVRon abruptly
p3382
aVHarry abruptly
p3383
asVYeh
p3384
(lp3385
g3384
aVYeh
p3386
aVYeh
p3387
aVYeh
p3388
asVWe'd
p3389
(lp3390
g3389
aVWe'd
p3391
aVWe'd
p3392
aVWe'd
p3393
aVWe'd
p3394
aVWe'd
p3395
aVWe'd
p3396
asVMandrakes
p3397
(lp3398
Vour Mandrakes
p3399
aVthe Mandrakes
p3400
aVThe Mandrakes
p3401
aVthe Mandrakes
p3402
aVThe Mandrakes
p3403
aVsome Mandrakes
p3404
aVthe Mandrakes
p3405
aVthe Mandrakes
p3406
aVthe Mandrakes
p3407
aVthe Mandrakes
p3408
aVthe Mandrakes
p3409
aVthe Mandrakes
p3410
aVthe Mandrakes
p3411
aVher the Mandrakes
p3412
aVthe Mandrake
p3413
aVMandrake
p3414
aVThe Mandrake
p3415
aVthe Mandrake
p3416
aVthe Mandrake
p3417
aVthe Mandrake
p3418
aVthe Mandrake
p3419
aVa Mandrake
p3420
asValone
p3421
(lp3422
VSlytherin alone
p3423
aVHarry alone
p3424
aVHarry and Professor McGonagall alone
p3425
asVMuggle
p3426
(lp3427
Vno Muggle
p3428
aVMuggle
p3429
aVMuggle Artifacts Office
p3430
aVMuggle Artifacts Office
p3431
aVMuggle Artifacts Office
p3432
aVArthur Weasley and his Muggle Protection Act
p3433
aVMuggle-borns
p3434
aVMuggle-borns
p3435
aVno Muggle-borns
p3436
aVthe Muggle-borns
p3437
aVMuggle-borns
p3438
aVMuggle-born
p3439
aVMuggle-born
p3440
aVMuggle-born
p3441
aVMuggle-made
p3442
aVthe Muggles
p3443
aVMuggles
p3444
aVmany ways Muggles
p3445
aVMuggles
p3446
aVMuggles
p3447
aVthe Muggles
p3448
aVTwo Muggles
p3449
aVMuggles
p3450
aVMuggles
p3451
aVMuggles
p3452
aVMuggles
p3453
aVMuggles
p3454
ag3444
aVLousy Muggles
p3455
ag3447
aVcurious Muggles
p3456
aVpolice...Six or seven Muggles
p3457
ag3451
aVMuggle-born
p3458
aVMuggle-born
p3459
ag3439
ag3441
aVMuggle-borns
p3460
aVMuggle-borns
p3461
aVMuggle-borns
p3462
ag3435
ag3437
aVMuggle-baiting
p3463
asVpatiently
p3464
(lp3465
VDumbledore patiently
p3466
asVRevealer
p3467
(lp3468
Va Revealer
p3469
asVquickly
p3470
(lp3471
VHarry quickly
p3472
aVEat quickly
p3473
aVHarry quickly
p3474
aVHarry quickly
p3475
aVRon quickly
p3476
aVHarry quickly
p3477
aVNick quickly
p3478
aVHarry quickly
p3479
aVRon quickly
p3480
aVHarry quickly
p3481
aVHarry quickly
p3482
aVHermione quickly
p3483
aVLockhart quickly
p3484
aVHarry quickly
p3485
aVHarry quickly
p3486
aVHarry quickly
p3487
aVQuick
p3488
aVQuick
p3489
asVProtection
p3490
(lp3491
Va new Muggle Protection Act
p3492
aVour laws and his ridiculous Muggle Protection Act
p3493
aVArthur Weasley and his Muggle Protection Act
p3494
asVslowly
p3495
(lp3496
VRon slowly
p3497
aVProfessor Binns slowly
p3498
aVHermione slowly
p3499
aVMalfoy slowly
p3500
aVRon slowly
p3501
aVAragog slowly
p3502
aVHarry slowly
p3503
aVMr. Malfoy slowly
p3504
asVCare
p3505
(lp3506
Va Care
p3507
aVCare
p3508
aVCar
p3509
asVThat'd
p3510
(lp3511
g3510
aVThat'd
p3512
asVShe'd
p3513
(lp3514
g3513
asVDean
p3515
(lp3516
g3515
aVDean
p3517
aVDean
p3518
aVDean
p3519
aVDean
p3520
aVHarry and Dean
p3521
aVDean
p3522
aVDean
p3523
aVDean Thomas
p3524
aVSeamus Finnigan and Dean Thomas
p3525
aVDean and Seamus
p3526
aVDean Thomas
p3527
aVDean Thomas
p3528
aVSeamus Finnigan and Dean Thomas
p3529
aVDean Thomas
p3530
aVDean Thomas loudly
p3531
aVDean Thomas
p3532
aVSeamus Finnigan and Dean Thomas
p3533
aVDean Thomas
p3534
aVDean Thomas
p3535
aVSeamus Finnigan and Dean Thomas
p3536
aVDean Thomas
p3537
aVDean Thomas loudly
p3538
asVSir
p3539
(lp3540
g3539
aVSir
p3541
aVSir
p3542
aVSir
p3543
aVSir Properly Decapitated-Podmore
p3544
aVSir Patrick
p3545
aVSir Patrick
p3546
aVas Sir Patrick
p3547
asVFlich
p3548
(lp3549
g3548
aVFlich
p3550
asVFawkes
p3551
(lp3552
g3551
aVFawkes
p3553
aVNo Fawkes
p3554
aVFawkes
p3555
aVFawkes
p3556
aVFawkes
p3557
aVFawkes
p3558
aVFawkes
p3559
aVsabers Fawkes
p3560
ag3559
aVsabers Fawkes
p3561
aVFawkes
p3562
aVFawkes
p3563
aVFawkes
p3564
aVFawkes
p3565
aVFawkes
p3566
aVFawkes
p3567
aVFawkes
p3568
ag3568
aVFawkes
p3569
aVFawkes
p3570
aVFawkes
p3571
aVFawkes
p3572
aVFawkes
p3573
aVFawkes
p3574
aVFawkes
p3575
aVFawkes
p3576
aVFawkes
p3577
ag3577
aVFawkes
p3578
aVuse Fawkes or the Sorting Hat
p3579
aVFawkes and the Sorting Hat
p3580
aVFawkes and the Sorting Hat
p3581
aVFawke
p3582
asVvoice
p3583
(lp3584
Va high-pitched voice Harry
p3585
aVa voice Harry
p3586
asVBetter
p3587
(lp3588
g3587
aVBetter
p3589
aVBetter not
p3590
aVBetter not
p3591
aVBetter not
p3592
aVBetter not
p3593
asVWood
p3594
(lp3595
VWood
p3596
aVWood
p3597
aVWood
p3598
aVWood
p3599
aVWood
p3600
aVWood
p3601
aVWood
p3602
aVWood
p3603
aVWood
p3604
aVWood
p3605
aVWood
p3606
aVWood
p3607
aVWood
p3608
aVWood
p3609
aVWood
p3610
aVWood
p3611
aVWood
p3612
aVWood
p3613
aVWood
p3614
aVWood
p3615
aVWood
p3616
aVWood
p3617
aVWood
p3618
aVWood
p3619
aVWood
p3620
aVWood
p3621
aVWood
p3622
aVWood
p3623
aVWood
p3624
aVWood
p3625
aVWood
p3626
aVa muddy Wood
p3627
aVWood
p3628
aVOliver Wood
p3629
aVWood briskly
p3630
aVWood enthusiastically
p3631
asVAlbus
p3632
(lp3633
V...If Albus
p3634
aVAlbus
p3635
aVAlbus
p3636
aVAlbus
p3637
aVAlbus Dumbledore
p3638
aVAlbus Dumbledore
p3639
aVAlbus...surely...who
p3640
asVSnape
p3641
(lp3642
g3641
ag3641
aVSnape
p3643
aVSnape
p3644
aVSnape
p3645
aVSnape
p3646
aVSnape
p3647
aVSnape
p3648
aVSnape
p3649
aVSnape
p3650
aVSnape
p3651
aVSnape
p3652
aVSnape
p3653
aVSnape
p3654
aVSnape
p3655
ag3652
ag3653
ag3654
ag3655
aVSnape
p3656
aVSnape
p3657
aVSnape
p3658
aVProfessor S. Snape
p3659
aVSnape
p3660
ag3660
aVSnape
p3661
aVSnape
p3662
aVSnape
p3663
aVSnape
p3664
aVSnape
p3665
aVSnape
p3666
aVSnape
p3667
aVSnape
p3668
aVSnape
p3669
aVSnape
p3670
aVSnape
p3671
aVSnape
p3672
aVthan let Snape
p3673
aVSnape
p3674
aVSnape
p3675
aVSnape
p3676
aVSnape
p3677
aVSnape
p3678
aVSnape
p3679
aVSnape
p3680
aVSnape
p3681
aVSnape
p3682
ag3679
ag3680
ag3681
ag3682
aVSnape
p3683
aVSnape
p3684
aVSnape
p3685
aVSnape
p3686
aVSnape
p3687
aVSnape
p3688
aVSnape
p3689
aVSnape
p3690
aVSnape
p3691
aVSnape
p3692
aVSnape
p3693
aVSnape
p3694
aVSnape
p3695
aVSnape
p3696
aVSnape
p3697
aVSnape
p3698
aVSnape
p3699
aVSnape
p3700
aVSnape
p3701
aVSnape
p3702
aVSnape
p3703
aVSnape
p3704
aVSnape
p3705
aVSnape
p3706
aVSnape
p3707
aVSnape
p3708
aVSnape
p3709
aVSnape
p3710
aVSnape
p3711
ag3711
aVSnape
p3712
aVSnape
p3713
aVSnape
p3714
aVSnape
p3715
aVSnape
p3716
aVSnape
p3717
aVSnape
p3718
aVSnape
p3719
aVSnape
p3720
aVSnape
p3721
aVSnape coldly
p3722
aVSnape icily
p3723
asVtriumphantly
p3724
(lp3725
VHarry triumphantly
p3726
asVThird
p3727
(lp3728
g3727
aVThird Class
p3729
aVThird Class
p3730
aVThird Class
p3731
aVThird Class
p3732
asVProphet
p3733
(lp3734
Vthe Daily Prophet
p3735
aVthe Daily Prophet
p3736
aVthe Evening Prophet
p3737
aVof the Daily Prophet
p3738
aVthe Daily Prophet
p3739
aVthe Daily Prophet
p3740
aVEvening
p3741
aVthe Evening Prophet
p3742
asVSlytherin
p3743
(lp3744
g3743
aVSlytherin
p3745
aVSlytherin
p3746
ag3743
ag3745
ag3746
aVSlytherin
p3747
aVSlytherin
p3748
aVSlytherin
p3749
aVSlytherin
p3750
aVSlytherin
p3751
aVSlytherin
p3752
aVSlytherin
p3753
aVSlytherin
p3754
aVSlytherin
p3755
aVSlytherin
p3756
aVSlytherin
p3757
aVSlytherin
p3758
aVSlytherin
p3759
aVSlytherin
p3760
aVSlytherin
p3761
aVthe Slytherin
p3762
aVthe Slytherin
p3763
aVSlytherin
p3764
aVSlytherin
p3765
aVSlytherin
p3766
aVa Slytherin
p3767
aVa Slytherin
p3768
aVSlytherin
p3769
aVSlytherin
p3770
aVSlytherin
p3771
aVSlytherin
p3772
ag3772
aVSlytherin
p3773
aVSlytherin
p3774
aVSlytherin
p3775
aVhis being Slytherin
p3776
aVthe Slytherin
p3777
aVa Slytherin
p3778
aVthe Slytherin
p3779
aVa Slytherin
p3780
aVSlytherin
p3781
aVThe Slytherin
p3782
aVSlytherin
p3783
aVthe Slytherin
p3784
aVSlytherin
p3785
aVSlytherin
p3786
aVthe Slytherin
p3787
aVSlytherin
p3788
aVSlytherin
p3789
aVSlytherin
p3790
aVSlytherin
p3791
aVSlytherin
p3792
ag3792
aVSlytherin
p3793
aVSlytherin
p3794
aVSlytherin
p3795
aVSlytherin
p3796
aVSlytherin
p3797
aVSlytherin
p3798
aVSlytherin
p3799
aVSlytherin
p3800
aVSlytherin
p3801
aVSlytherin
p3802
aVSlytherin
p3803
aVSlytherin
p3804
aVSlytherin
p3805
aVSlytherin
p3806
aVSlytherin
p3807
aVSlytherin
p3808
aVSlytherin and Gryffindor
p3809
aVSlytherin ever
p3810
aVSlytherin just
p3811
aVSlytherin himself Serpent-tongue
p3812
aVThe Slytherins
p3813
aVThe Slytherins
p3814
aVthe Slytherins
p3815
aVseveral Slytherins
p3816
aVthe Slytherins
p3817
aVall the Slytherins
p3818
aVThe Slytherins always
p3819
aVthe Slytherins
p3820
aVthe Slytherins
p3821
aVSlytherins
p3822
aVSlytherins
p3823
aVthe other Slytherins
p3824
ag3817
aVthe Slytherins forever
p3825
asVstudent
p3826
(lp3827
Vthe most brilliant student Hogwarts
p3828
asVOrder
p3829
(lp3830
g3829
aVOrder
p3831
aVan Order
p3832
asVpleasantly
p3833
(lp3834
VDumbledore pleasantly
p3835
asVHannah
p3836
(lp3837
g3836
aVErnie and Hannah
p3838
aVHannah uncertainly
p3839
asVFinch-Fletchley
p3840
(lp3841
VJustin Finch-Fletchley
p3842
aVJustin Finch-Fletchley
p3843
aVJustin Finch-Fletchley
p3844
aVthe way Justin Finch-Fletchley
p3845
aVJustin Finch-Fletchley
p3846
aVLongbottom and Finch-Fletchley
p3847
aVFinch-Fletchley
p3848
aVJustin Finch-Fletchley
p3849
aVJustin Finch-Fletchley
p3850
aVJustin Finch-Fletchley
p3851
aVJustin Finch-Fletchley
p3852
asVjust
p3853
(lp3854
VHarry just
p3855
aVGinny just
p3856
aVSlytherin just
p3857
aVI'd just
p3858
aVColin just
p3859
asVheavily
p3860
(lp3861
VHarry heavily
p3862
aVRon heavily
p3863
aVProfessor McGonagall heavily
p3864
asVyoung
p3865
(lp3866
Vyoung Master Malfoy
p3867
aVyoung Harry here
p3868
aVa fifty-year-younger Dumbledore
p3869
asVRavenclaw
p3870
(lp3871
g3870
ag3870
aVRowena Ravenclaw
p3872
aVa Ravenclaw
p3873
aVone Ravenclaw
p3874
aVRavenclaw and Hufflepuff
p3875
asVFlint
p3876
(lp3877
g3876
aVMarcus Flint
p3878
aVFlint
p3879
aVFlint
p3880
aVFlint
p3881
aVFlint
p3882
aVFlint
p3883
aVFlint
p3884
ag3884
aVMarcus Flint
p3885
aVFlint carelessly
p3886
aVFlint and Wood
p3887
aVFlint carelessly
p3888
asVearnestly
p3889
(lp3890
VDobby earnestly
p3891
asVHermes
p3892
(lp3893
g3892
asVenthusiastically
p3894
(lp3895
VRon enthusiastically
p3896
aVHermione enthusiastically
p3897
aVWood enthusiastically
p3898
asVAunt
p3899
(lp3900
VAunt Petunia
p3901
aVAunt Petunia
p3902
aVAunt Petunia
p3903
aVboth Aunt Petunia
p3904
aVAunt Petunia
p3905
aVAunt Petunia
p3906
aVAunt Petunia
p3907
ag175
ag177
ag180
ag182
aVAunt Petunia promptly
p3908
ag185
asVpolitely
p3909
(lp3910
VHarry politely
p3911
asVSalazar
p3912
(lp3913
g3912
ag3912
aVSalazar Slytherin
p3914
aVSalazar Slytherin
p3915
aVSalazar Slytherin
p3916
aVSalazar Slytherin
p3917
aVSalazar Slytherin
p3918
aVSalazar Slytherin
p3919
aVSalazar Slytherin
p3920
aVmany qualities Salazar Slytherin
p3921
asVfearfully
p3922
(lp3923
VHarry fearfully
p3924
asVPerry
p3925
(lp3926
g3925
aVthe very last person Harry
p3927
aVthe very last person Harry
p3928
asVsmoothly
p3929
(lp3930
VMr. Malfoy smoothly
p3931
asVCreevey
p3932
(lp3933
VColin Creevey
p3934
aVMr. Creevey
p3935
aVyoung Creevey
p3936
aVYou'd better hope Creevey
p3937
aVColin Creevey
p3938
aVhim and Colin Creevey
p3939
aVColin Creevey
p3940
aVColin Creevey
p3941
aVColin Creevey
p3942
aVColin Creevey
p3943
aVMrs. Norris and Colin Creevey
p3944
aVMrs. Norris and Colin Creevey
p3945
aVCreevey
p3946
aVCreevey
p3947
aVthat Creevey
p3948
aVColin Creevey eagerly
p3949
asVMason
p3950
(lp3951
VMr. and Mrs. Mason
p3952
aVMrs. Mason
p3953
aVMrs. Mason
p3954
aVMr. Mason
p3955
aVMr. and Mrs. Mason
p3956
aVMr. Mason
p3957
aVMrs. Mason
p3958
aVMrs. Mason
p3959
aVMr. Mason
p3960
aVMrs. Mason back
p3961
aVThe Masons
p3962
aVThe Masons
p3963
aVMasons
p3964
aVthe Masons
p3965
aVMr. Mason....Do
p3966
asVMaster
p3967
(lp3968
g3967
aVMaster
p3969
aVMaster
p3970
aVyoung Master Malfoy
p3971
asVCrabbe
p3972
(lp3973
g3972
aVCrabbe
p3974
aVCrabbe
p3975
aVCrabbe
p3976
aVCrabbe
p3977
aVthe real Crabbe
p3978
aVCrabbe
p3979
aVCrabbe
p3980
aVCrabbe
p3981
ag3980
ag3981
aVCrabbe
p3982
aVCrabbe
p3983
aVCrabbe
p3984
aVCrabbe
p3985
aVCrabbe
p3986
aVCrabbe
p3987
aVCrabbe
p3988
aVCrabbe
p3989
aVCrabbe
p3990
aVCrabbe
p3991
aVCrabbe
p3992
aVCrabbe
p3993
aVCrabbe
p3994
aVCrabbe and Goyle
p3995
aVCrabbe and Goyle
p3996
aVCrabbe and Goyle
p3997
aVsure Crabbe and Goyle
p3998
aVCrabbe and Goyle
p3999
aVCrabbe and Goyle
p4000
aVCrabbe gleefully
p4001
aVCrabbe gleefully
p4002
aVCrabbe and Goyle
p4003
aVCrabbe and Goyle
p4004
aVCrabbe and Goyle
p4005
aVCrabbe and Goyle
p4006
aVCrabbe and Goyle
p4007
aVCrabbe gleefully
p4008
aVCrabbe gleefully
p4009
asVLee
p4010
(lp4011
g4010
aVLee Jordan
p4012
aVLee Jordan
p4013
aVLee Jordan
p4014
aVLee Jordan
p4015
aVLee Jordan
p4016
aVfriend Lee Jordan
p4017
aVLee Jordan
p4018
aVLee Jordan
p4019
aVLee Jordan
p4020
aVLee Jordan
p4021
aVLee Jordan
p4022
aVfriend Lee Jordan
p4023
asVconstantly
p4024
(lp4025
VHarry constantly
p4026
asVHunt
p4027
(lp4028
Vthe Headless Hunt
p4029
aVthe Headless Hunt
p4030
aVthe Hunt
p4031
aVthe Headless Hunt
p4032
aVthe Headless Hunt
p4033
asVBill
p4034
(lp4035
Vthis from Bill
p4036
aVBill
p4037
aVBill
p4038
aVdragons and Bill
p4039
aVBill
p4040
aVthan visit Bill
p4041
aVB-Bill
p4042
asVLucius
p4043
(lp4044
g4043
aVLucius
p4045
aVLucius
p4046
aVLucius
p4047
aVLucius
p4048
aVLucius
p4049
aVLucius
p4050
aVLucius
p4051
aVLucius Malfoy
p4052
aVLucius Malfoy
p4053
aVLucius Malfoy
p4054
aVLucius Malfoy
p4055
aVyou Lucius Malfoy
p4056
aVSpect Lucius Malfoy
p4057
aVLucius Malfoy
p4058
aVMr. Lucius Malfoy
p4059
aVMr. Lucius Malfoy
p4060
aVLucius Malfoy
p4061
aVLucius Malfoy
p4062
aVLucius Malfoy
p4063
aVLucius Malfoy
p4064
aVLucius Malfoy
p4065
aVLucius Malfoy
p4066
aVLucius Malfoy
p4067
aVLucius Malfoy
p4068
aVLucius Malfoy
p4069
aVLucius Malfoy
p4070
aVLucius Malfoy
p4071
asVAngelina
p4072
(lp4073
g4072
aVAngelina
p4074
aVKatie Bell and Angelina Johnson
p4075
asVYou'd
p4076
(lp4077
g4076
aVYou'd
p4078
aVYou'd
p4079
aVYou'd
p4080
aVYou'd
p4081
aVYou'd better hope Creevey
p4082
aVYou'd never
p4083
asVRon
p4084
(lp4085
g4084
aVRon
p4086
ag4084
ag4086
aVRon
p4087
aVRon
p4088
aVRon
p4089
aVRon
p4090
aVRon
p4091
aVRon
p4092
aVRon
p4093
aVRon
p4094
aVRon
p4095
aVRon
p4096
aVRon
p4097
aVRon
p4098
aVRon
p4099
aVRon
p4100
aVRon
p4101
aVRon
p4102
aVRon
p4103
aVRon
p4104
aVRon
p4105
aVRon
p4106
aVRon
p4107
aVRon
p4108
aVRon
p4109
aVRon
p4110
aVRon
p4111
aVRon
p4112
aVRon
p4113
aVRon
p4114
aVRon
p4115
aVRon
p4116
aVRon
p4117
aVRon
p4118
aVRon
p4119
aVRon
p4120
aVRon
p4121
aVRon
p4122
aVRon
p4123
aVRon
p4124
aVRon
p4125
aVRon
p4126
aVRon
p4127
aVRon
p4128
aVRon
p4129
aVRon
p4130
aVRon
p4131
aVRon
p4132
aVRon
p4133
aVRon
p4134
aVRon
p4135
aVRon
p4136
aVRon
p4137
aVHe and Ron
p4138
aVRon
p4139
aVRon
p4140
aVRon
p4141
aVRon
p4142
aVRon
p4143
aVRon
p4144
aVRon
p4145
aVRon
p4146
aVRon
p4147
aVRon
p4148
aVRon
p4149
aVRon
p4150
aVRon
p4151
aVRon
p4152
aVRon
p4153
aVRon
p4154
aVRon
p4155
aVRon
p4156
aVRon
p4157
aVRon
p4158
aVRon
p4159
aVRon
p4160
aVeither Ron
p4161
aVRon
p4162
aVRon
p4163
aVRon
p4164
aVRon
p4165
aVRon
p4166
aVRon
p4167
aVRon
p4168
aVRon
p4169
aVRon
p4170
aVRon
p4171
aVRon
p4172
aVRon
p4173
aVRon
p4174
aVRon
p4175
aVRon
p4176
aVRon
p4177
aVRon
p4178
aVRon
p4179
aVRon
p4180
aVRon
p4181
aVRon
p4182
aVRon
p4183
aVHe and Ron
p4184
aVHe and Ron
p4185
aVRon
p4186
aVRon
p4187
aVRon
p4188
aVRon
p4189
aVRon
p4190
aVRon
p4191
aVRon
p4192
aVRon
p4193
aVRon
p4194
aVRon
p4195
aVRon
p4196
aVRon
p4197
aVRon
p4198
aVRon
p4199
aVRon
p4200
aVRon
p4201
aVRon
p4202
aVRon
p4203
aVRon
p4204
aVRon
p4205
aVhe and Ron
p4206
aVRon
p4207
aVhe and Ron
p4208
ag4207
aVRon
p4209
aVRon
p4210
aVat Ron
p4211
aVRon
p4212
aVRon
p4213
aVhe and Ron
p4214
aVRon
p4215
aVRon
p4216
aVRon
p4217
aVRon
p4218
aVRon
p4219
aVRon
p4220
aVRon
p4221
aVRon
p4222
aVRon
p4223
aVRon
p4224
aVRon
p4225
aVRon
p4226
aVRon
p4227
aVRon
p4228
aVRon
p4229
aVRon
p4230
aVRon
p4231
aVRon
p4232
aVRon
p4233
aVRon
p4234
aVRon
p4235
aVRon
p4236
aVRon
p4237
aVRon
p4238
ag4237
ag4238
aVRon
p4239
aVRon
p4240
aVRon
p4241
aVhim and Ron
p4242
ag4241
aVhim and Ron
p4243
aVRon
p4244
aVRon
p4245
aVRon
p4246
aVRon
p4247
aVRon
p4248
aVRon
p4249
aVRon
p4250
aVRon
p4251
aVRon
p4252
aVRon
p4253
aVRon
p4254
aVof Ron
p4255
aVRon
p4256
aVRon
p4257
aVRon
p4258
aVRon
p4259
aVRon
p4260
aVRon
p4261
aVRon
p4262
aVRon
p4263
aVRon
p4264
aVRon
p4265
ag4264
ag4265
aVRon
p4266
aVRon
p4267
aVRon
p4268
aVRon
p4269
aVRon
p4270
aVRon
p4271
aVRon
p4272
aVRon
p4273
aVRon
p4274
aVRon
p4275
aVRon
p4276
aVRon
p4277
aVRon
p4278
aVRon
p4279
aVRon
p4280
aVRon
p4281
aVRon
p4282
aVRon
p4283
aVRon
p4284
aVRon
p4285
aVRon
p4286
aVRon
p4287
aVRon
p4288
aVRon
p4289
aVRon
p4290
aVRon
p4291
aVRon
p4292
ag4291
ag4292
aVRon
p4293
aVher and Ron
p4294
aVRon
p4295
aVRon
p4296
aVRon
p4297
aVRon
p4298
aVRon
p4299
aVRon
p4300
aVRon
p4301
aVRon
p4302
aVRon
p4303
aVRon
p4304
aVRon
p4305
aVRon
p4306
aVRon
p4307
aVRon
p4308
aVRon
p4309
aVRon
p4310
ag4310
aVRon
p4311
aVRon
p4312
aVRon
p4313
aVRon
p4314
aVRon
p4315
aVRon
p4316
aVRon
p4317
aVRon
p4318
aVRon
p4319
aVRon
p4320
aVRon
p4321
aVRon
p4322
aVRon
p4323
aVRon
p4324
aVRon
p4325
aVRon
p4326
aVRon
p4327
aVRon
p4328
aVRon
p4329
aVRon
p4330
aVRon
p4331
aVRon
p4332
aVRon
p4333
aVRon
p4334
aVRon
p4335
aVRon
p4336
aVRon
p4337
aVRon
p4338
aVRon
p4339
aVRon
p4340
aVRon
p4341
aVRon
p4342
aVRon
p4343
aVRon
p4344
aVRon
p4345
aVRon
p4346
aVRon
p4347
aVRon
p4348
aVRon
p4349
aVafter Ron
p4350
aVRon
p4351
aVRon
p4352
aVRon
p4353
ag4353
aVRon
p4354
aVRon
p4355
aVRon
p4356
aVRon
p4357
aVRon
p4358
aVRon
p4359
aVRon
p4360
aVRon
p4361
aVRon
p4362
aVRon
p4363
aVRon
p4364
aVRon
p4365
aVRon
p4366
aVRon
p4367
aVRon
p4368
aVRon
p4369
aVRon
p4370
aVRon
p4371
aVRon
p4372
aVneither Ron
p4373
aVRon
p4374
aVRon
p4375
aVRon
p4376
aVRon
p4377
aVRon
p4378
aVRon
p4379
aVRon
p4380
aVRon
p4381
aVRon
p4382
aVRon
p4383
aVRon
p4384
aVRon
p4385
aVRon
p4386
aVRon
p4387
ag4386
ag4387
aVRon
p4388
aVRon
p4389
aVRon
p4390
aVRon
p4391
aVforehead and Ron
p4392
ag4391
aVforehead and Ron
p4393
aVRon
p4394
aVRon
p4395
aVRon
p4396
aVRon
p4397
aVRon
p4398
aVRon
p4399
aVRon
p4400
aVRon
p4401
aVRon
p4402
aVRon
p4403
aVRon
p4404
aVRon
p4405
aVRon
p4406
aVRon
p4407
aVRon
p4408
aVRon
p4409
aVHe and Ron
p4410
aVRon
p4411
aVRon
p4412
aVRon
p4413
aVRon
p4414
aVRon
p4415
aVRon
p4416
aVRon
p4417
aVRon
p4418
aVRon
p4419
aVRon
p4420
aVRon
p4421
aVRon
p4422
aVRon
p4423
aVRon
p4424
aVas Ron
p4425
aVRon
p4426
aVRon
p4427
aVRon
p4428
aVRon
p4429
aVRon
p4430
aVRon
p4431
aVRon
p4432
aVRon
p4433
aVRon
p4434
aVRon
p4435
aVRon
p4436
aVRon
p4437
aVRon
p4438
aVRon
p4439
aVRon
p4440
aVRon
p4441
aVRon
p4442
aVRon
p4443
aVRon
p4444
aVRon
p4445
aVRon
p4446
aVRon
p4447
aVRon
p4448
aVRon
p4449
aVRon
p4450
aVRon
p4451
aVRon
p4452
aVRon
p4453
aVRon
p4454
aVRon
p4455
aVRon
p4456
aVRon
p4457
ag4454
ag4455
ag4456
ag4457
aVRon
p4458
aVRon
p4459
aVRon
p4460
aVRon
p4461
aVRon
p4462
aVRon
p4463
aVRon
p4464
aVRon
p4465
aVRon
p4466
aVRon
p4467
aVRon
p4468
aVRon
p4469
aVRon
p4470
aVRon
p4471
aVRon
p4472
aVRon
p4473
aVRon
p4474
aVRon
p4475
aVRon
p4476
aVRon
p4477
aVRon
p4478
aVRon
p4479
aVRon
p4480
aVRon
p4481
aVRon
p4482
aVRon
p4483
aVRon
p4484
aVRon
p4485
aVhe and Ron
p4486
aVRon
p4487
aVRon
p4488
aVRon
p4489
ag4489
aVRon
p4490
aVRon
p4491
aVRon
p4492
aVHarry and Ron
p4493
aVRon
p4494
aVRon
p4495
aVRon
p4496
aVRon
p4497
aVHarry and Ron
p4498
aVRon
p4499
aVRon
p4500
aVRon
p4501
aVRon
p4502
aVRon
p4503
aVRon
p4504
aVRon
p4505
aVHarry and Ron
p4506
aVHarry and Ron
p4507
aVHarry and Ron
p4508
aVRon
p4509
aVRon
p4510
aVRon
p4511
aVRon
p4512
ag4512
aVRon
p4513
aVRon
p4514
aVRon
p4515
aVRon
p4516
aVRon
p4517
aVRon
p4518
aVRon
p4519
aVRon
p4520
aVRon
p4521
aVRon
p4522
aVRon
p4523
aVRon
p4524
aVRon
p4525
ag4522
ag4523
ag4524
ag4525
aVRon
p4526
aVHarry and Ron
p4527
aVHarry and Ron
p4528
aVRon
p4529
aVRon
p4530
aVRon
p4531
aVRon
p4532
aVRon
p4533
aVRon
p4534
ag4532
ag4533
ag4534
aVRon
p4535
aVRon
p4536
aVRon
p4537
aVRon
p4538
aVRon
p4539
ag4537
ag4538
ag4539
aVRon
p4540
aVRon
p4541
aVRon
p4542
aVRon
p4543
aVRon
p4544
aVRon
p4545
aVRon
p4546
aVRon
p4547
aVRon
p4548
aVRon
p4549
aVRon
p4550
aVRon
p4551
aVRon
p4552
aVRon
p4553
aVRon
p4554
aVRon
p4555
aVRon
p4556
aVRon
p4557
aVHarry and Ron
p4558
aVRon
p4559
aVRon
p4560
aVRon
p4561
aVRon
p4562
aVRon
p4563
aVRon
p4564
aVRon
p4565
aVRon
p4566
aVHarry and Ron
p4567
aVRon
p4568
aVRon
p4569
aVRon
p4570
aVRon
p4571
aVRon
p4572
aVRon
p4573
aVRon
p4574
aVRon
p4575
aVHarry and Ron
p4576
aVRon
p4577
aVRon
p4578
aVRon
p4579
aVRon
p4580
aVRon
p4581
aVRon
p4582
aVRon
p4583
aVRon
p4584
ag4583
ag4584
aVRon
p4585
aVRon
p4586
aVRon
p4587
aVRon
p4588
aVRon
p4589
aVRon
p4590
aVRon
p4591
aVRon
p4592
aVthough Ron
p4593
aVRon
p4594
aVRon
p4595
aVRon
p4596
aVRon
p4597
ag4597
aVRon
p4598
aVRon
p4599
aVRon
p4600
aVRon
p4601
aVRon
p4602
aVRon
p4603
aVRon
p4604
aVRon
p4605
aVRon
p4606
aVRon
p4607
aVRon
p4608
aVRon
p4609
aVRon
p4610
aVRon
p4611
aVhimself and Ron
p4612
aVhe and Ron
p4613
aVRon
p4614
aVRon
p4615
aVRon
p4616
aVRon
p4617
aVRon
p4618
aVRon
p4619
aVRon
p4620
aVRon
p4621
aVRon
p4622
aVRon
p4623
ag4623
aVRon
p4624
aVRon Weasley and Hermione Granger
p4625
aVRon impatiently
p4626
aVRon and Fred
p4627
aVRon impatiently
p4628
aVRon thickly
p4629
aVRon impatiently
p4630
aVfollow Ron and Hermione
p4631
aVRon Weasley
p4632
aVRon weakly
p4633
aVRon heavily
p4634
aVHarry and Ron painfully
p4635
aVRon hopefully
p4636
aVRon and Hermione
p4637
aVRon and Hermione
p4638
aVRon quickly
p4639
aVRon furiously
p4640
aVRon and Hermione
p4641
aVRon and Hermione
p4642
aVRon and Hermione
p4643
aVRon gruffly
p4644
aVRon helpfully
p4645
aVRon irritably
p4646
aVRon and Hermione
p4647
aVRon and Hermione
p4648
aVRon and Hermione
p4649
aVRon and Hermione
p4650
aVRon and Hermione
p4651
aVRon and Hermione
p4652
aVRon and Harry
p4653
aVRon and Hermione
p4654
aVRon reassuringly
p4655
aVRon and Hermione
p4656
aVRon and Hermione
p4657
aVRon knowingly
p4658
aVRon and Hermione
p4659
aVRon excitedly
p4660
aVRon tensely
p4661
aVRon suddenly
p4662
aVRon resentfully
p4663
aVRon slowly
p4664
aVRon and Hermione
p4665
aVRon still
p4666
aVRon loudly
p4667
aVRon and Fang
p4668
aVRon weakly
p4669
aVRon and Professor McGonagall
p4670
aVRon suddenly
p4671
aVRon and Lockhart
p4672
aVRon weakly
p4673
aVRon yet
p4674
aVRon brightly
p4675
aVRon and Hermione
p4676
asVCommittee
p4677
(lp4678
Vthe Committee
p4679
asVautomatically
p4680
(lp4681
VHarry automatically
p4682
asVhotly
p4683
(lp4684
VRon hotly
p4685
asVquietly
p4686
(lp4687
VHarry quietly
p4688
aVHarry quietly
p4689
aVRon quietly
p4690
asVexasperated
p4691
(lp4692
Vexasperated Harry
p4693
asVErrol
p4694
(lp4695
g4694
aVErrol
p4696
aVErrol
p4697
aVErrol
p4698
aVErrol
p4699
aVErrol
p4700
aVErrol
p4701
aVErrol
p4702
aVErrol gently
p4703
asVback
p4704
(lp4705
VMrs. Mason back
p4706
aVDobby back
p4707
aVDobby back
p4708
aVHarry back
p4709
aVanother Howler back
p4710
aVbin Professor Lockhart back
p4711
aVFilch back
p4712
aVFilch back
p4713
aVthe Bludger back
p4714
aVthe Bludger back
p4715
aVLie back
p4716
aVMrs. Norris back
p4717
aVProfessor McGonagall back
p4718
aVGinny back
p4719
asVshrilly
p4720
(lp4721
VHermione shrilly
p4722
asVChamber
p4723
(lp4724
VThe Chamber
p4725
aVthe Chamber
p4726
aVthe Chamber
p4727
aVme see...the Chamber
p4728
aVthe Chamber
p4729
aVthe Chamber
p4730
aVthe Chamber
p4731
aVthe Chamber
p4732
aVno Chamber
p4733
aVthe Chamber
p4734
aVa Chamber
p4735
aVThe Chamber
p4736
aVthe Chamber
p4737
aVthe Chamber
p4738
aVa Chamber
p4739
aVthe Chamber
p4740
aVthe Chamber
p4741
aVThe Chamber
p4742
aVthe Chamber
p4743
aVthe Chamber
p4744
aVthe Chamber
p4745
aVthe Chamber
p4746
aVthe Chamber
p4747
aVthe Chamber
p4748
aVthe Chamber
p4749
aVthe Chamber
p4750
aVthe Chamber
p4751
aVthe Chamber
p4752
aVthe Chamber
p4753
aVthe Chamber
p4754
aVthe Chamber
p4755
aVthe Chamber
p4756
aVthe Chamber
p4757
aVthe Chamber
p4758
aVthe Chamber
p4759
aVthe Chamber
p4760
aVthe Chamber
p4761
aVthe Chamber
p4762
aVthe Chamber
p4763
aVthe Chamber
p4764
aVthe Chamber
p4765
aVthe Chamber
p4766
aVthe Chamber
p4767
aVthe Chamber
p4768
aVthe Chamber
p4769
aVthe Chamber
p4770
aVthe Chamber
p4771
aVthe Chamber
p4772
aVthe Chamber
p4773
aVthe Chamber
p4774
aVthe Chamber
p4775
aVthe Chamber
p4776
aVthe Chamber
p4777
aVthe Chamber
p4778
aVthe Chamber
p4779
aVthe Chamber
p4780
aVthe Chamber
p4781
aVthe Chamber
p4782
aVthe Chamber
p4783
aVthe Chamber
p4784
aVthe empty Chamber
p4785
aVthe Chamber
p4786
aVThe Chamber
p4787
aVThe Chamber
p4788
aVthe Chamber
p4789
aVthe Chamber
p4790
aVthe Chamber
p4791
aVthe Chamber
p4792
aVthe Chamber
p4793
aVthe Chamber
p4794
aVthe Chamber
p4795
aVthe Chamber
p4796
aVthe Chamber forever
p4797
asVHarry
p4798
(lp4799
VHarry
p4800
aVHarry
p4801
aVHarry
p4802
aVHarry
p4803
aVHarry
p4804
aVHarry
p4805
aVHarry
p4806
aVAll Harry
p4807
aVHarry
p4808
aVHarry
p4809
aVHarry
p4810
aVHarry
p4811
aVHarry
p4812
aVHarry
p4813
aVHarry
p4814
aVHarry
p4815
aVHarry
p4816
aVHarry
p4817
aVHarry
p4818
aVHarry
p4819
aVHarry
p4820
aVHarry
p4821
ag4805
ag4806
aVAll Harry
p4822
ag4808
ag4809
ag4810
ag4811
ag4812
ag4813
ag4814
ag4815
ag4816
ag4817
ag4818
ag4819
ag4820
ag4821
aVHarry
p4823
aVHarry
p4824
aVHarry
p4825
aVHarry
p4826
aVHarry
p4827
aVHarry
p4828
aVHarry
p4829
aVHarry
p4830
aVHarry
p4831
aVHarry
p4832
aVHarry
p4833
aVHarry
p4834
aVHarry
p4835
aVHarry
p4836
aVHarry
p4837
aVHarry
p4838
aVHarry
p4839
aVHarry
p4840
aVHarry
p4841
aVHarry
p4842
ag4833
ag4834
ag4835
ag4836
ag4837
ag4838
ag4839
ag4840
ag4841
ag4842
aVHarry
p4843
aVHarry
p4844
aVHarry
p4845
aVHarry
p4846
aVHarry
p4847
aVHarry
p4848
aVHarry
p4849
aVHarry
p4850
ag4847
ag4848
ag4849
ag4850
aVHarry
p4851
aVHarry
p4852
aVHarry
p4853
aVHarry
p4854
aVHarry
p4855
aVHarry
p4856
aVHarry
p4857
aVHarry
p4858
aVHarry
p4859
aVHarry
p4860
aVHarry
p4861
aVHarry
p4862
aVHarry
p4863
aVHarry
p4864
aVHarry
p4865
aVHarry
p4866
aVHarry
p4867
aVHarry
p4868
aVHarry
p4869
aVHarry
p4870
aVHarry
p4871
aVHarry
p4872
aVHarry
p4873
aVHarry
p4874
aVHarry
p4875
aVHarry
p4876
aVHarry
p4877
aVHarry
p4878
aVHarry
p4879
aVHarry
p4880
aVHarry
p4881
aVHarry
p4882
aVHarry
p4883
aVHarry
p4884
aVof Harry
p4885
aVHarry
p4886
aVat Harry
p4887
aVHarry
p4888
aVHarry
p4889
aVHarry
p4890
aVHarry
p4891
aVHarry
p4892
aVHarry
p4893
aVHarry
p4894
aVHarry
p4895
aVHarry
p4896
aVHarry
p4897
aVHarry
p4898
aVHarry
p4899
aVHarry
p4900
aVHarry
p4901
aVHarry
p4902
aVHarry
p4903
aVHarry
p4904
ag4904
aVHarry
p4905
aVHarry
p4906
aVHarry
p4907
aVHarry
p4908
aVHarry
p4909
aVHarry
p4910
aVHarry
p4911
aVHarry
p4912
aVHarry
p4913
aVHarry
p4914
aVHarry
p4915
aVHarry
p4916
aVHarry
p4917
aVHarry
p4918
aVHarry
p4919
aVHarry
p4920
aVHarry
p4921
aVHarry
p4922
aVHarry
p4923
aVHarry
p4924
aVHarry
p4925
aVHarry
p4926
aVHarry
p4927
aVHarry
p4928
aVHarry
p4929
aVHarry
p4930
aVHarry
p4931
aVHarry
p4932
aVof Harry
p4933
aVHarry
p4934
aVlaughter and Harry
p4935
aVHarry
p4936
aVHarry
p4937
aVHarry
p4938
aVHarry
p4939
aVHarry
p4940
aVHarry
p4941
aVHarry
p4942
aVHarry
p4943
aVHarry
p4944
aVHarry
p4945
aVHarry
p4946
aVHarry
p4947
aVHarry
p4948
aVHarry
p4949
aVHarry
p4950
aVwhich Harry
p4951
aVHarry
p4952
aVHarry
p4953
aVHarry
p4954
aVHarry
p4955
aVHarry
p4956
aVHarry
p4957
aVHarry
p4958
aVHarry
p4959
aVHarry
p4960
aVHarry
p4961
aVHarry
p4962
aVHarry
p4963
aVHarry
p4964
aVHarry
p4965
aVHarry
p4966
aVHarry
p4967
aVHarry
p4968
aVHarry
p4969
aVHarry
p4970
aVHarry
p4971
aVHarry
p4972
aVHarry
p4973
aVHarry
p4974
aVHarry
p4975
aVHarry
p4976
aVHarry
p4977
aVHarry
p4978
aVHarry
p4979
aVHarry
p4980
aVHarry
p4981
aVHarry
p4982
aVHarry
p4983
aVHarry
p4984
aVHarry
p4985
aVHarry
p4986
aVHarry
p4987
aVHarry
p4988
aVHarry
p4989
aVHarry
p4990
aVHarry
p4991
aVHarry
p4992
aVat Harry
p4993
aVHarry
p4994
aVthis except Harry
p4995
aVHarry
p4996
aVHarry
p4997
aVHarry
p4998
aVHarry
p4999
aVHarry
p5000
aVHarry
p5001
aVHarry
p5002
aVHarry
p5003
aVHarry
p5004
aVHarry
p5005
aVHarry
p5006
aVHarry
p5007
aVHarry
p5008
aVHarry
p5009
aVHarry
p5010
aVHarry
p5011
aVHarry
p5012
aVHarry
p5013
aVHarry
p5014
ag5013
ag5014
aVHarry
p5015
aVHarry
p5016
aVHarry
p5017
aVHarry
p5018
aVHarry
p5019
aVHarry
p5020
aVHarry
p5021
aVHarry
p5022
ag5019
ag5020
ag5021
ag5022
aVHarry
p5023
aVHarry
p5024
aVHarry
p5025
aVHarry
p5026
aVHarry
p5027
aVHarry
p5028
aVHarry
p5029
aVHarry
p5030
aVHarry
p5031
aVHarry
p5032
aVHarry
p5033
aVHarry
p5034
aVHarry
p5035
aVHarry
p5036
aVHarry
p5037
aVHarry
p5038
aVHarry
p5039
aVHarry
p5040
aVHarry
p5041
aVHarry
p5042
aVHarry
p5043
aVHarry
p5044
ag5043
ag5044
aVHarry
p5045
aVHarry
p5046
aVHarry
p5047
aVHarry
p5048
aVHarry
p5049
aVHarry
p5050
aVHarry
p5051
aVHarry
p5052
aVHarry
p5053
aVHarry
p5054
aVHarry
p5055
aVHarry
p5056
aVHarry
p5057
aVHarry
p5058
aVHarry
p5059
aVHarry
p5060
aVall of Harry
p5061
aVHarry
p5062
aVHarry
p5063
aVHarry
p5064
aVHarry
p5065
aVHarry
p5066
aVHarry
p5067
aVHarry
p5068
aVHarry
p5069
aVHarry
p5070
aVHarry
p5071
aVHarry
p5072
aVHarry
p5073
aVHarry
p5074
aVHarry
p5075
aVHarry
p5076
aVHarry
p5077
aVHarry
p5078
aVHarry
p5079
aVHarry
p5080
aVHarry
p5081
aVHarry
p5082
aVHarry
p5083
aVHarry
p5084
aVHarry
p5085
ag5083
ag5084
ag5085
aVHarry
p5086
aVHarry
p5087
aVHarry
p5088
aVHarry
p5089
aVHarry
p5090
aVHarry
p5091
aVHarry
p5092
aVHarry
p5093
aVHarry
p5094
aVHarry
p5095
aVHarry
p5096
aVHarry
p5097
aVHarry
p5098
aVHarry
p5099
aVHarry
p5100
aVHarry
p5101
aVHarry
p5102
aVHarry
p5103
ag5100
ag5101
ag5102
ag5103
aVHarry
p5104
aVHarry
p5105
aVHarry
p5106
aVHarry
p5107
aVHarry
p5108
aVHarry
p5109
aVHarry
p5110
ag5109
ag5110
aVHarry
p5111
aVHarry
p5112
aVHarry
p5113
aVHarry
p5114
aVHarry
p5115
aVHarry
p5116
aVHarry
p5117
aVHarry
p5118
aVHarry
p5119
aVHarry
p5120
aVHarry
p5121
aVHarry
p5122
aVHarry
p5123
aVHarry
p5124
aVHarry
p5125
aVHarry
p5126
aVHarry
p5127
aVHarry
p5128
aVHarry
p5129
aVHarry
p5130
aVHarry
p5131
aVHarry
p5132
aVHarry
p5133
aVHarry
p5134
aVHarry
p5135
aVHarry
p5136
aVHarry
p5137
aVHarry
p5138
aVHarry
p5139
aVHarry
p5140
aVHarry
p5141
ag5137
ag5138
ag5139
ag5140
ag5141
aVHarry
p5142
aVHarry
p5143
aVHarry
p5144
aVHarry
p5145
aVHarry
p5146
aVHarry
p5147
aVHarry
p5148
aVHarry
p5149
aVHarry
p5150
aVHarry
p5151
aVHarry
p5152
aVHarry
p5153
aVHarry
p5154
aVHarry
p5155
aVHarry
p5156
aVHarry
p5157
aVHarry
p5158
aVHarry
p5159
aVHarry
p5160
aVHarry
p5161
aVHarry
p5162
aVHarry
p5163
ag5162
ag5163
aVHarry
p5164
aVHarry
p5165
aVHarry
p5166
aVHarry
p5167
aVHarry
p5168
ag5166
ag5167
ag5168
aVHarry
p5169
aVHarry
p5170
aVHarry
p5171
aVHarry
p5172
aVHarry
p5173
aVHarry
p5174
aVHarry
p5175
aVHarry
p5176
aVHarry
p5177
aVHarry
p5178
aVHarry
p5179
aVHarry
p5180
aVHarry
p5181
aVHarry
p5182
aVHarry
p5183
aVHarry
p5184
aVHarry
p5185
aVHarry
p5186
aVHarry
p5187
aVHarry
p5188
aVHarry
p5189
aVHarry
p5190
aVHarry
p5191
aVHarry
p5192
aVHarry
p5193
aVHarry
p5194
aVHarry
p5195
aVHarry
p5196
aVHarry
p5197
aVHarry
p5198
aVHarry
p5199
aVHarry
p5200
aVHarry
p5201
aVHarry
p5202
aVHarry
p5203
aVHarry
p5204
aVHarry
p5205
aVHarry
p5206
aVHarry
p5207
aVHarry
p5208
aVHarry
p5209
aVHarry
p5210
aVHarry
p5211
aVHarry
p5212
aVHarry
p5213
aVHarry
p5214
aVHarry
p5215
aVHarry
p5216
aVHarry
p5217
aVHarry
p5218
aVHarry
p5219
aVHarry
p5220
aVHarry
p5221
aVHarry
p5222
aVHarry
p5223
aVHarry
p5224
aVHarry
p5225
aVHarry
p5226
aVHarry
p5227
aVHarry
p5228
aVHarry
p5229
aVHarry
p5230
aVHarry
p5231
aVHarry
p5232
aVHarry
p5233
aVHarry
p5234
aVHarry
p5235
aVHarry
p5236
aVHarry
p5237
aVHarry
p5238
aVHarry
p5239
aVHarry
p5240
aVHarry
p5241
aVHarry
p5242
aVHarry
p5243
aVHarry
p5244
aVHarry
p5245
aVHarry
p5246
aVHarry
p5247
aVHarry
p5248
aVHarry
p5249
aVHarry
p5250
aVHarry
p5251
aVHarry
p5252
aVHarry
p5253
aVHarry
p5254
aVHarry
p5255
aVHarry
p5256
aVHarry
p5257
aVHarry
p5258
ag5255
ag5256
ag5257
ag5258
aVHarry
p5259
aVHarry
p5260
aVHarry
p5261
aVHarry
p5262
aVHarry
p5263
aVHarry
p5264
aVHarry
p5265
aVHarry
p5266
aVHarry
p5267
aVHarry
p5268
aVHarry
p5269
aVHarry
p5270
aVHarry
p5271
aVHarry
p5272
aVHarry
p5273
aVHarry
p5274
aVHarry
p5275
aVHarry
p5276
aVHarry
p5277
ag5275
ag5276
ag5277
aVHarry
p5278
aVHarry
p5279
aVHarry
p5280
aVHarry
p5281
aVHarry
p5282
aVHarry
p5283
aVHarry
p5284
aVHarry
p5285
aVHarry
p5286
aVHarry
p5287
aVHarry
p5288
aVHarry
p5289
aVHarry
p5290
aVHarry
p5291
aVHarry
p5292
aVHarry
p5293
aVHarry
p5294
aVHarry
p5295
aVHarry
p5296
aVHarry
p5297
aVHarry
p5298
aVHarry
p5299
aVhis tracks and Harry
p5300
aVHarry
p5301
aVHarry
p5302
aVHarry
p5303
aVHarry
p5304
aVHarry
p5305
aVHarry
p5306
aVHarry
p5307
aVHarry
p5308
aVHarry
p5309
aVHarry
p5310
aVHarry
p5311
aVHarry
p5312
aVHarry
p5313
aVHarry
p5314
aVHarry
p5315
aVHarry
p5316
aVHarry
p5317
aVHarry
p5318
aVHarry
p5319
aVHarry
p5320
aVHarry
p5321
aVHarry
p5322
aVHarry
p5323
aVHarry
p5324
aVHarry
p5325
aVHarry
p5326
aVHarry
p5327
aVHarry
p5328
aVHarry
p5329
aVHarry
p5330
aVHarry
p5331
aVHarry
p5332
aVHarry
p5333
ag5332
ag5333
aVHarry
p5334
aVHarry
p5335
aVHarry
p5336
aVHarry
p5337
aVHarry
p5338
aVHarry
p5339
aVHarry
p5340
aVHarry
p5341
aVHarry
p5342
aVHarry
p5343
aVHarry
p5344
aVHarry
p5345
aVHarry
p5346
aVHarry
p5347
aVHarry
p5348
aVHarry
p5349
aVHarry
p5350
aVHarry
p5351
aVHarry
p5352
aVHarry
p5353
aVHarry
p5354
aVHarry
p5355
aVHarry
p5356
aVHarry
p5357
aVHarry
p5358
aVHarry
p5359
aVHarry
p5360
aVHarry
p5361
aVHarry
p5362
aVHarry
p5363
aVHarry
p5364
aVHarry
p5365
aVHarry
p5366
aVHarry
p5367
aVHarry
p5368
aVHarry
p5369
aVHarry
p5370
aVHarry
p5371
aVHarry
p5372
aVHarry
p5373
aVHarry
p5374
aVHarry
p5375
aVHarry
p5376
aVHarry
p5377
aVHarry
p5378
aVHarry
p5379
aVHarry
p5380
aVHarry
p5381
aVHarry
p5382
aVHarry
p5383
aVHarry
p5384
aVHarry
p5385
aVHarry
p5386
aVHarry
p5387
aVHarry
p5388
aVHarry
p5389
aVHarry
p5390
aVHarry
p5391
aVHarry
p5392
aVHarry
p5393
aVHarry
p5394
aVHarry
p5395
aVHarry
p5396
aVHarry
p5397
aVHarry
p5398
aVHarry
p5399
aVHarry
p5400
aVHarry
p5401
aVHarry
p5402
ag5398
ag5399
ag5400
ag5401
ag5402
aVHarry
p5403
aVHarry
p5404
aVHarry
p5405
aVHarry
p5406
aVHarry
p5407
aVHarry
p5408
aVHarry
p5409
aVHarry
p5410
aVHarry
p5411
aVHarry
p5412
aVHarry
p5413
aVHarry
p5414
aVHarry
p5415
aVHarry
p5416
aVHarry
p5417
aVHarry
p5418
aVhigher Harry
p5419
aVHarry
p5420
aVHarry
p5421
aVHarry
p5422
aVHarry
p5423
aVHarry
p5424
aVHarry
p5425
aVHarry
p5426
aVHarry
p5427
ag5422
ag5423
ag5424
ag5425
ag5426
ag5427
aVof Harry
p5428
aVHarry
p5429
aVHarry
p5430
aVHarry
p5431
aVHarry
p5432
aVHarry
p5433
aVHarry
p5434
aVHarry
p5435
aVHarry
p5436
aVHarry
p5437
aVHarry
p5438
aVHarry
p5439
aVHarry
p5440
ag5439
ag5440
aVHarry
p5441
aVHarry
p5442
aVHarry
p5443
aVHarry
p5444
aVHarry
p5445
aVHarry
p5446
aVHarry
p5447
aVHarry
p5448
aVHarry
p5449
aVHarry
p5450
aVHarry
p5451
aVHarry
p5452
aVHarry
p5453
aVHarry
p5454
aVHarry
p5455
aVHarry
p5456
aVHarry
p5457
aVHarry
p5458
aVHarry
p5459
aVHarry
p5460
aVHarry
p5461
aVHarry
p5462
aVHarry
p5463
aVHarry
p5464
aVHarry
p5465
aVHarry
p5466
aVHarry
p5467
aVHarry
p5468
aVHarry
p5469
aVHarry
p5470
aVHarry
p5471
aVHarry
p5472
aVHarry
p5473
aVHarry
p5474
aVHarry
p5475
aVHarry
p5476
aVHarry
p5477
aVHarry
p5478
aVHarry
p5479
aVHarry
p5480
aVHarry
p5481
aVHarry
p5482
aVHarry
p5483
aVHarry
p5484
aVHarry
p5485
aVHarry
p5486
aVHarry
p5487
aVHarry
p5488
aVHarry
p5489
aVHarry
p5490
aVHarry
p5491
aVHarry
p5492
ag5488
ag5489
ag5490
ag5491
ag5492
aVHarry
p5493
aVHarry
p5494
aVHarry
p5495
aVHarry
p5496
aVHarry
p5497
aVHarry
p5498
aVHarry
p5499
aVHarry
p5500
aVHarry
p5501
aVHarry
p5502
aVHarry
p5503
aVHarry
p5504
aVHarry
p5505
aVHarry
p5506
aVHarry
p5507
aVHarry
p5508
aVHarry
p5509
aVHarry
p5510
aVHarry
p5511
aVHarry
p5512
aVHarry
p5513
aVHarry
p5514
aVHarry
p5515
aVHarry
p5516
aVHarry
p5517
aVHarry
p5518
aVHarry
p5519
aVHarry
p5520
aVHarry
p5521
aVHarry
p5522
aVHarry
p5523
aVHarry
p5524
aVHarry
p5525
aVHarry
p5526
aVHarry
p5527
aVHarry
p5528
aVHarry
p5529
aVHarry
p5530
aVHarry
p5531
aVHarry
p5532
aVHarry
p5533
aVHarry
p5534
aVHarry
p5535
aVHarry
p5536
aVHarry
p5537
aVHarry
p5538
aVHarry
p5539
aVHarry
p5540
ag5536
ag5537
ag5538
ag5539
ag5540
aVHarry
p5541
aVHarry
p5542
aVHarry
p5543
aVHarry
p5544
aVHarry
p5545
ag5542
ag5543
ag5544
ag5545
aVHarry
p5546
aVHarry
p5547
aVHarry
p5548
aVHarry
p5549
aVHarry
p5550
aVHarry
p5551
aVHarry
p5552
aVHarry
p5553
aVHarry
p5554
aVHarry
p5555
aVHarry
p5556
aVHarry
p5557
aVHarry
p5558
aVHarry
p5559
aVHarry
p5560
ag5559
ag5560
aVHarry
p5561
aVHarry
p5562
aVHarry
p5563
aVHarry
p5564
aVat Harry
p5565
aVHarry
p5566
aVHarry
p5567
aVHarry
p5568
aVHarry
p5569
aVHarry
p5570
aVHarry
p5571
aVHarry
p5572
aVHarry
p5573
aVHarry
p5574
aVHarry
p5575
aVHarry
p5576
aVHarry
p5577
aVHarry
p5578
aVHarry
p5579
aVHarry
p5580
aVHarry
p5581
aVHarry
p5582
aVHarry
p5583
ag5578
ag5579
ag5580
ag5581
ag5582
ag5583
aVHarry
p5584
aVHarry
p5585
aVHarry
p5586
aVHarry
p5587
aVHarry
p5588
aVHarry
p5589
aVHarry
p5590
aVHarry
p5591
aVHarry
p5592
aVHarry
p5593
aVHarry
p5594
aVHarry
p5595
aVHarry
p5596
aVHarry
p5597
aVHarry
p5598
aVHarry
p5599
aVHarry
p5600
aVHarry
p5601
aVHarry
p5602
aVHarry
p5603
aVHarry
p5604
aVHarry
p5605
aVwhich Harry
p5606
aVHarry
p5607
ag5605
aVwhich Harry
p5608
ag5607
aVHarry
p5609
aVHarry
p5610
aVHarry
p5611
aVHarry
p5612
aVHarry
p5613
aVHarry
p5614
aVHarry
p5615
ag5615
aVHarry
p5616
aVHarry
p5617
aVHarry
p5618
aVHarry
p5619
aVHarry
p5620
aVHarry
p5621
ag5620
ag5621
aVHarry
p5622
aVHarry
p5623
aVHarry
p5624
aVHarry
p5625
aVHarry
p5626
aVHarry
p5627
aVHarry
p5628
aVHarry
p5629
aVHarry
p5630
aVHarry
p5631
aVHarry
p5632
aVHarry
p5633
aVHarry
p5634
aVHarry
p5635
aVHarry
p5636
aVHarry
p5637
aVHarry
p5638
aVHarry
p5639
aVHarry
p5640
aVHarry
p5641
aVHarry
p5642
aVHarry
p5643
aVHarry
p5644
aVHarry
p5645
aVHarry
p5646
aVHarry
p5647
aVHarry
p5648
aVHarry
p5649
aVHarry
p5650
aVHarry
p5651
aVHarry
p5652
aVHarry
p5653
aVHarry
p5654
aVHarry
p5655
aVHarry
p5656
aVHarry
p5657
aVHarry
p5658
aVHarry
p5659
aVHarry
p5660
aVHarry
p5661
aVHarry
p5662
aVHarry
p5663
aVHarry
p5664
aVHarry
p5665
aVHarry
p5666
aVHarry
p5667
aVHarry
p5668
aVHarry
p5669
aVHarry
p5670
aVHarry
p5671
aVHarry
p5672
aVHarry
p5673
aVHarry
p5674
aVHarry
p5675
aVHarry
p5676
aVHarry
p5677
aVHarry
p5678
aVHarry
p5679
aVHarry
p5680
aVHarry
p5681
aVHarry
p5682
aVHarry
p5683
aVHarry
p5684
aVHarry
p5685
aVHarry
p5686
aVHarry
p5687
aVHarry
p5688
aVHarry
p5689
aVHarry
p5690
aVHarry
p5691
aVHarry
p5692
aVHarry
p5693
aVHarry
p5694
aVHarry
p5695
aVHarry
p5696
aVHarry
p5697
aVHarry
p5698
aVHarry
p5699
aVHarry
p5700
ag5698
ag5699
ag5700
aVHarry
p5701
aVHarry
p5702
aVHarry
p5703
aVHarry
p5704
aVHarry
p5705
aVHarry
p5706
aVHarry
p5707
aVHarry
p5708
aVHarry
p5709
ag5707
ag5708
ag5709
aVHarry
p5710
aVHarry
p5711
aVHarry
p5712
aVHarry
p5713
aVHarry
p5714
aVHarry
p5715
aVHarry
p5716
aVHarry
p5717
aVHarry
p5718
aVHarry
p5719
aVHarry
p5720
ag5717
ag5718
ag5719
ag5720
aVHarry
p5721
aVpenetrating stare Harry
p5722
aVHarry
p5723
aVHarry
p5724
aVwhich Harry
p5725
aVHarry
p5726
aVHarry
p5727
aVHarry
p5728
aVHarry
p5729
aVHarry
p5730
ag5723
ag5724
aVwhich Harry
p5731
ag5726
ag5727
ag5728
ag5729
ag5730
aVHarry
p5732
aVHarry
p5733
aVHarry
p5734
aVHarry
p5735
aVHarry
p5736
aVHarry
p5737
aVHarry
p5738
aVHarry
p5739
aVHarry
p5740
aVHarry
p5741
aVHarry
p5742
aVHarry
p5743
aVHarry
p5744
aVHarry
p5745
aVHarry
p5746
aVHarry
p5747
aVHarry
p5748
aVHarry
p5749
aVHarry
p5750
aVHarry
p5751
aVHarry
p5752
aVHarry
p5753
aVHarry
p5754
aVHarry
p5755
aVHarry
p5756
aVHarry
p5757
aVHarry
p5758
aVHarry
p5759
aVHarry
p5760
aVHarry
p5761
aVHarry
p5762
aVHarry
p5763
aVHarry
p5764
aVHarry
p5765
aVHarry
p5766
aVHarry
p5767
aVHarry
p5768
aVHarry
p5769
aVHarry
p5770
aVHarry
p5771
aVHarry
p5772
aVHarry
p5773
aVHarry
p5774
aVHarry
p5775
aVHarry
p5776
aVHarry
p5777
aVHarry
p5778
aVHarry
p5779
aVHarry
p5780
aVHarry
p5781
aVHarry
p5782
aVHarry
p5783
aVHarry
p5784
aVHarry
p5785
aVHarry
p5786
aVHarry
p5787
aVHarry
p5788
ag5785
ag5786
ag5787
ag5788
aVHarry
p5789
aVHarry
p5790
aVHarry
p5791
aVHarry
p5792
aVHarry
p5793
aVHarry
p5794
aVHarry
p5795
aVHarry
p5796
aVHarry
p5797
aVHarry
p5798
aVHarry
p5799
aVHarry
p5800
aVHarry
p5801
aVHarry
p5802
aVHarry
p5803
aVHarry
p5804
aVHarry
p5805
aVHarry
p5806
aVHarry
p5807
aVHarry
p5808
aVHarry
p5809
aVHarry
p5810
aVHarry
p5811
aVHarry
p5812
aVHarry
p5813
aVHarry
p5814
ag5811
ag5812
ag5813
ag5814
aVHarry
p5815
aVHarry
p5816
aVHarry
p5817
aVboth Harry
p5818
aVHarry
p5819
aVHarry
p5820
aVHarry
p5821
aVHarry
p5822
aVHarry
p5823
aVHarry
p5824
aVHarry
p5825
aVHarry
p5826
aVHarry
p5827
aVHarry
p5828
aVHarry
p5829
aVHarry
p5830
aVHarry
p5831
aVHarry
p5832
aVHarry
p5833
aVHarry
p5834
aVHarry
p5835
aVHarry
p5836
ag5829
ag5830
ag5831
ag5832
ag5833
ag5834
ag5835
ag5836
aVHarry
p5837
aVHarry
p5838
aVHarry
p5839
aVHarry
p5840
aVHarry
p5841
aVHarry
p5842
aVHarry
p5843
aVHarry
p5844
aVHarry
p5845
aVHarry
p5846
aVHarry
p5847
aVHarry
p5848
aVHarry
p5849
aVHarry
p5850
aVHarry
p5851
aVHarry
p5852
aVHarry
p5853
aVHarry
p5854
aVHarry
p5855
aVHarry
p5856
aVHarry
p5857
aVHarry
p5858
ag5852
ag5853
ag5854
ag5855
ag5856
ag5857
ag5858
aVHarry
p5859
aVHarry
p5860
aVnearer Harry
p5861
aVHarry
p5862
aVHarry
p5863
aVHarry
p5864
aVnearer Harry
p5865
ag5862
ag5863
ag5864
aVHarry
p5866
aVHarry
p5867
aVHarry
p5868
aVHarry
p5869
aVHarry
p5870
aVHarry
p5871
aVHarry
p5872
aVHarry
p5873
aVHarry
p5874
aVHarry
p5875
aVHarry
p5876
aVHarry
p5877
aVHarry
p5878
aVHarry
p5879
aVHarry
p5880
aVHarry
p5881
aVHarry
p5882
aVHarry
p5883
aVHarry
p5884
aVHarry
p5885
aVHarry
p5886
aVHarry
p5887
aVHarry
p5888
aVHarry
p5889
aVHarry
p5890
aVHarry
p5891
aVHarry
p5892
aVHarry
p5893
aVHarry
p5894
aVHarry
p5895
aVHarry
p5896
aVHarry
p5897
aVHarry
p5898
aVHarry
p5899
aVHarry
p5900
aVHarry
p5901
aVHarry
p5902
aVHarry
p5903
aVHarry
p5904
aVHarry
p5905
aVHarry
p5906
aVHarry
p5907
aVHarry
p5908
aVHarry
p5909
aVHarry
p5910
aVHarry
p5911
aVHarry
p5912
aVHarry
p5913
aVHarry
p5914
aVHarry
p5915
aVHarry
p5916
aVHarry
p5917
aVHarry
p5918
aVHarry
p5919
aVHarry
p5920
aVHarry
p5921
aVHarry
p5922
aVHarry
p5923
aVHarry
p5924
aVHarry
p5925
aVHarry
p5926
aVHarry
p5927
aVHarry
p5928
aVHarry
p5929
aVHarry
p5930
aVHarry
p5931
aVHarry
p5932
aVHarry
p5933
aVHarry
p5934
aVHarry
p5935
ag5934
ag5935
aVHarry
p5936
aVHarry
p5937
aVHarry
p5938
aVHarry
p5939
aVHarry
p5940
aVHarry
p5941
aVHarry
p5942
aVHarry
p5943
aVHarry
p5944
aVHarry
p5945
aVHarry
p5946
aVHarry
p5947
aVHarry
p5948
aVHarry
p5949
aVHarry
p5950
aVHarry
p5951
aVHarry
p5952
ag5951
ag5952
aVHarry
p5953
aVHarry
p5954
aVHarry
p5955
aVHarry
p5956
aVHarry
p5957
aVHarry
p5958
aVthough Harry
p5959
aVHarry
p5960
aVHarry
p5961
aVHarry
p5962
aVHarry
p5963
aVHarry
p5964
aVHarry
p5965
aVHarry
p5966
aVHarry
p5967
aVHarry
p5968
aVHarry
p5969
aVHarry
p5970
aVHarry
p5971
aVHarry
p5972
aVHarry
p5973
aVHarry
p5974
aVHarry
p5975
aVHarry
p5976
aVHarry
p5977
aVHarry
p5978
aVHarry
p5979
aVHarry
p5980
aVHarry
p5981
aVHarry
p5982
aVHarry
p5983
aVHarry
p5984
aVHarry
p5985
aVHarry
p5986
aVHarry
p5987
aVHarry
p5988
aVHarry
p5989
aVHarry
p5990
aVHarry
p5991
aVHarry
p5992
aVHarry
p5993
aVHarry
p5994
aVHarry
p5995
aVHarry
p5996
aVHarry
p5997
aVHarry
p5998
aVHarry
p5999
aVHarry
p6000
aVHarry
p6001
aVHarry
p6002
ag5997
ag5998
ag5999
ag6000
ag6001
ag6002
aVHarry
p6003
aVHarry
p6004
aVHarry
p6005
aVHarry
p6006
aVHarry
p6007
aVHarry
p6008
aVHarry
p6009
aVHarry
p6010
aVHarry
p6011
aVHarry
p6012
aVHarry
p6013
aVHarry
p6014
aVHarry
p6015
aVHarry
p6016
aVHarry
p6017
aVHarry
p6018
aVHarry
p6019
aVHarry
p6020
aVHarry
p6021
aVHarry
p6022
aVHarry
p6023
aVHarry
p6024
aVHarry
p6025
ag6019
ag6020
ag6021
ag6022
ag6023
ag6024
ag6025
aVHarry
p6026
aVHarry
p6027
aVHarry
p6028
aVHarry
p6029
aVHarry
p6030
aVHarry
p6031
aVHarry
p6032
ag6028
ag6029
ag6030
ag6031
ag6032
aVHarry
p6033
aVHarry
p6034
aVHarry
p6035
aVHarry
p6036
aVHarry
p6037
aVHarry
p6038
aVHarry
p6039
ag6033
ag6034
ag6035
ag6036
ag6037
ag6038
ag6039
aVHarry
p6040
aVHarry
p6041
aVHarry
p6042
aVHarry
p6043
aVHarry
p6044
aVHarry
p6045
aVHarry
p6046
aVHarry
p6047
aVHarry
p6048
aVHarry
p6049
aVHarry
p6050
aVboth Harry
p6051
aVHarry
p6052
aVHarry
p6053
aVHarry
p6054
aVHarry
p6055
aVHarry
p6056
aVHarry
p6057
ag6050
aVboth Harry
p6058
ag6052
ag6053
ag6054
ag6055
ag6056
ag6057
aVHarry
p6059
aVHarry
p6060
aVHarry
p6061
aVHarry
p6062
aVHarry
p6063
aVHarry
p6064
aVHarry
p6065
aVHarry
p6066
aVHarry
p6067
aVHarry
p6068
aVHarry
p6069
aVHarry
p6070
aVHarry
p6071
aVHarry
p6072
aVHarry
p6073
aVHarry
p6074
aVHarry
p6075
aVHarry
p6076
aVHarry
p6077
aVHarry
p6078
aVHarry
p6079
aVHarry
p6080
aVHarry
p6081
aVHarry
p6082
aVHarry
p6083
aVHarry
p6084
aVHarry
p6085
aVHarry
p6086
aVHarry
p6087
aVHarry
p6088
aVHarry
p6089
aVHarry
p6090
aVHarry
p6091
aVHarry
p6092
ag6090
ag6091
ag6092
aVHarry
p6093
aVHarry
p6094
aVHarry
p6095
aVHarry
p6096
aVHarry
p6097
aVHarry
p6098
aVHarry
p6099
aVHarry
p6100
aVHarry
p6101
aVHarry
p6102
aVHarry
p6103
aVHarry
p6104
aVHarry
p6105
aVHarry
p6106
aVHarry
p6107
aVHarry
p6108
aVHarry
p6109
aVHarry
p6110
aVHarry
p6111
aVHarry
p6112
aVHarry
p6113
aVHarry
p6114
aVHarry
p6115
aVHarry
p6116
aVHarry
p6117
aVHarry
p6118
aVHarry
p6119
aVHarry
p6120
aVHarry
p6121
aVHarry
p6122
aVHarry
p6123
aVHarry
p6124
aVHarry
p6125
aVHarry
p6126
aVHarry
p6127
aVHarry
p6128
aVHarry
p6129
aVHarry
p6130
aVat Harry
p6131
aVHarry
p6132
aVHarry
p6133
aVHarry
p6134
aVHarry
p6135
aVHarry
p6136
aVHarry
p6137
aVHarry
p6138
aVHarry
p6139
aVHarry
p6140
ag6138
ag6139
ag6140
aVHarry
p6141
aVHarry
p6142
aVHarry closely
p6143
aVHarry dully
p6144
aVfamous Harry Potter now
p6145
aVHarry curiously
p6146
aVago...that Harry Potter
p6147
aVangry....Dobby hoped...if Harry Potter
p6148
aVHarry back
p6149
aVit Harry Potter
p6150
aVHarry nervously
p6151
aVFamous Harry Potter
p6152
aVHarry wearily
p6153
aVHarry he and Ron
p6154
aVHarry barely
p6155
aVHarry groggily
p6156
aVHarry heavily
p6157
aVHarry angrily
p6158
aVHarry genially
p6159
aVHarry hollowly
p6160
aVHarry gratefully
p6161
aVHarry quickly
p6162
aVHarry cautiously
p6163
aVHarry hurriedly
p6164
aVHarry almost
p6165
aVHarry quickly
p6166
aVHarry and Hermione
p6167
aVHarry quickly
p6168
aVHarry darkly
p6169
aVHarry sincerely
p6170
aVHarry again
p6171
aVHarry desperately
p6172
aVHarry Potter
p6173
aVHarry Potter
p6174
aVHarry Potter
p6175
aVHarry Potter
p6176
aVHarry Potter
p6177
aVHarry Potter
p6178
aVHarry Potter
p6179
aVHarry Potter
p6180
aVHarry angrily
p6181
aVHarry Potter
p6182
aVHarry Potter
p6183
aVHarry Potter
p6184
aVHarry Potter
p6185
aVHarry Potter
p6186
aVHarry Potter
p6187
aVHarry Potter
p6188
aVHarry Potter
p6189
aVHarry and Hermione
p6190
aVHarry and Hermione
p6191
aVHarry and Ron together
p6192
aVHarry merrily
p6193
aVHarry and Professor McGonagall alone
p6194
aVHarry Potter
p6195
aVHarry never
p6196
aVHarry and Hermione
p6197
aVHarry loudly
p6198
aVHarry happily
p6199
aVHarry and Ron
p6200
aVHarry and Ron
p6201
aVHarry and Ron
p6202
aVHarry and Ron
p6203
aVHarry and Ron
p6204
aVHarry almost
p6205
aVHarry and Ron
p6206
aVHarry and Ron
p6207
aVHarry and Ron
p6208
aVHarry bleakly
p6209
aVHarry and Ron
p6210
aVHarry and Ron
p6211
aVHarry and Ron
p6212
aVHarry and Ron
p6213
aVHarry quickly
p6214
aVHarry and Ron
p6215
aVHarry and Ron
p6216
aVHarry Potter
p6217
aVHarry Potter
p6218
aVHarry miserably
p6219
aVHarry quickly
p6220
aVHarry quite
p6221
aVHarry and Ron
p6222
aVHarry barely
p6223
aVHarry distractedly
p6224
aVHarry and Ron
p6225
aVHarry and Ron
p6226
aVHarry quietly
p6227
aVHarry now
p6228
aVHarry and Ron
p6229
aVHarry and Ron
p6230
aVHarry and Dean
p6231
aVHarry and Ron
p6232
aVHarry and Ron
p6233
aVHarry and Ron
p6234
aVHarry and Ron
p6235
aVHarry and Ron
p6236
aVHarry frantically
p6237
aVHarry suddenly
p6238
aVHarry suddenly
p6239
aVHarry and Ron
p6240
aVHarry and Ron
p6241
aVHarry suddenly
p6242
aVHarry and Ron
p6243
aVHarry and Ron
p6244
aVHarry incredulously
p6245
aVHarry and Ron
p6246
aVHarry Potter
p6247
aVHarry Potter
p6248
aVHarry Potter
p6249
aVHarry Potter
p6250
aVHarry Potter
p6251
aVHarry abruptly
p6252
aVHarry thickly
p6253
aVHarry Potter
p6254
aVHarry Potter
p6255
aVthe famous Harry Potter
p6256
aVHarry quickly
p6257
aVHarry suddenly
p6258
aVHarry Potter
p6259
aVHarry Potter
p6260
aVHarry Potter
p6261
aVHarry Potter
p6262
aVHarry Potter
p6263
aVHarry weakly
p6264
aVHarry Potter
p6265
aVHarry Potter
p6266
aVHarry."You
p6267
asVLacewing
p6268
(lp6269
g6268
asVHouse
p6270
(lp6271
Vher House
p6272
aVGryffindor House
p6273
aVSlytherin House
p6274
aVthe right House
p6275
aVthe House
p6276
aVthe House Championship
p6277
aVthe House Cup
p6278
aVThe house-elf
p6279
aVthe house-elf
p6280
aVHouse-elves
p6281
asVHedwig
p6282
(lp6283
g6282
ag6282
aVHedwig
p6284
ag6284
aVHedwig
p6285
aVHedwig
p6286
aVHedwig
p6287
aVHedwig
p6288
aVHedwig
p6289
aVHedwig
p6290
aVHedwig
p6291
aVHedwig
p6292
aVHedwig
p6293
aVHedwig
p6294
aVHedwig
p6295
aVof Hedwig
p6296
aVput Hedwig
p6297
aVHedwig
p6298
aVHedwig
p6299
aVHedwig
p6300
aVHedwig
p6301
asVGinny
p6302
(lp6303
g6302
aVGinny
p6304
aVGinny
p6305
aVGinny
p6306
aVGinny
p6307
aVGinny
p6308
aVMrs. Weasley and Ginny
p6309
aVGinny
p6310
aVGinny
p6311
aVGinny
p6312
aVGinny
p6313
aVGinny
p6314
aVGinny
p6315
aVGinny
p6316
aVGinny
p6317
aVGinny
p6318
aVGinny
p6319
aVShe and Ginny
p6320
aVGinny
p6321
aVGinny
p6322
aVGinny
p6323
ag6323
aVGinny
p6324
aVGinny
p6325
aVGinny
p6326
aVGinny
p6327
aVGinny
p6328
aVher Ginny
p6329
aVGinny
p6330
aVGinny
p6331
aVGinny
p6332
aVGinny
p6333
aVGinny
p6334
ag6334
aVGinny
p6335
aVGinny
p6336
aVGinny
p6337
aVGinny
p6338
aVGinny
p6339
aVGinny
p6340
aVGinny
p6341
aVGinny
p6342
aVGinny
p6343
aVGinny
p6344
aVGinny
p6345
aVGinny
p6346
aVGinny
p6347
aVGinny
p6348
aVGinny
p6349
aVGinny
p6350
aVGinny
p6351
aVGinny
p6352
aVGinny
p6353
aVGinny
p6354
aVGinny
p6355
aVGinny
p6356
aVGinny
p6357
aVGinny
p6358
aVGinny
p6359
aVGinny
p6360
aVGinny
p6361
aVGinny
p6362
aVGinny
p6363
aVGinny
p6364
ag6364
aVGinny
p6365
aVGinny
p6366
aVGinny
p6367
aVGinny
p6368
aVGinny
p6369
aVGinny
p6370
aVGinny
p6371
aVGinny
p6372
aVGinny
p6373
aVGinny
p6374
aVGinny
p6375
aVGinny
p6376
aVGinny
p6377
aVGinny
p6378
aVGinny
p6379
ag6379
aVGinny
p6380
aVGinny
p6381
aVGinny
p6382
aVGinny
p6383
aVour Ginny
p6384
aVGinny
p6385
aVGinny
p6386
aVGinny
p6387
aVGinny
p6388
aVGinny
p6389
aVGinny
p6390
aVGinny
p6391
ag6391
aVGinny
p6392
aVGinny
p6393
aVGinny
p6394
aVGinny accidentally
p6395
aVGinny finally
p6396
aVGinny Weasley
p6397
aVGinny Weasley
p6398
aVthe real reason Ginny Weasley
p6399
aVGinny Weasley
p6400
aVGinny Weasley
p6401
aVGinny Weasley
p6402
aVGinny Weasley
p6403
aVof Ginny...and
p6404
asVstiffly
p6405
(lp6406
VNick stiffly
p6407
asVagain
p6408
(lp6409
VSnape again
p6410
aVHarry again
p6411
aVHarry again
p6412
aVHogwarts again
p6413
aVthe Chamber again
p6414
asVdimly
p6415
(lp6416
VLockhart dimly
p6417
asVTransfiguration
p6418
(lp6419
g6418
aVTransfiguration
p6420
ag6420
aVTransfiguration
p6421
aVTransfiguration
p6422
aVfor Transfiguration
p6423
aVTransfiguration
p6424
asVother
p6425
(lp6426
Veach other
p6427
aVthe other Bludger
p6428
aVthe other Slytherins
p6429
aVother powers Potter
p6430
aVthe other Gryffindors
p6431
aVthe other Gryffindors
p6432
asVsuspiciously
p6433
(lp6434
VRon and Harry suspiciously
p6435
asVGreat
p6436
(lp6437
g6436
aVat the Great Hall
p6438
aVthe Great Hall
p6439
aVthe Great Hall
p6440
aVThe Great Hall
p6441
aVof the Great Hall
p6442
aVin the Great Hall
p6443
aVthe Great Hall
p6444
aVthe Great Hall
p6445
aVthe Great Hall
p6446
aVthe Great Hall
p6447
aVthe Great Hall
p6448
aVgreat Harry Potter
p6449
asVDumbledore
p6450
(lp6451
g6450
aVDumbledore
p6452
aVDumbledore
p6453
aVDumbledore
p6454
aVDumbledore
p6455
aVDumbledore
p6456
aVDumbledore
p6457
aVDumbledore
p6458
aVDumbledore
p6459
aVDumbledore
p6460
aVfor Dumbledore
p6461
aVDumbledore
p6462
ag6462
aVDumbledore
p6463
aVDumbledore
p6464
aVDumbledore
p6465
aVDumbledore
p6466
aVDumbledore
p6467
aVDumbledore
p6468
ag6466
ag6467
ag6468
aVDumbledore
p6469
aVDumbledore
p6470
aVDumbledore
p6471
aVDumbledore
p6472
aVDumbledore
p6473
aVDumbledore
p6474
aVDumbledore
p6475
aVDumbledore
p6476
aVDumbledore
p6477
aVDumbledore
p6478
aVDumbledore
p6479
aVDumbledore
p6480
aVDumbledore
p6481
aVDumbledore
p6482
aVDumbledore
p6483
aVDumbledore
p6484
aVDumbledore
p6485
aVDumbledore
p6486
aVDumbledore
p6487
aVDumbledore
p6488
aVDumbledore
p6489
ag6488
ag6489
aVDumbledore
p6490
aVDumbledore
p6491
aVDumbledore
p6492
aVDumbledore
p6493
aVDumbledore
p6494
aVDumbledore
p6495
aVDumbledore
p6496
aVDumbledore
p6497
aVDumbledore
p6498
ag6498
aVDumbledore
p6499
aVDumbledore
p6500
aVDumbledore
p6501
aVDumbledore
p6502
ag6501
ag6502
aVDumbledore
p6503
aVDumbledore
p6504
aVDumbledore
p6505
aVDumbledore
p6506
aVDumbledore
p6507
aVDumbledore
p6508
aVDumbledore
p6509
aVDumbledore
p6510
aVDumbledore
p6511
aVDumbledore
p6512
aVDumbledore
p6513
aVDumbledore
p6514
aVDumbledore
p6515
aVDumbledore
p6516
aVtake Dumbledore
p6517
aVDumbledore
p6518
aVDumbledore
p6519
aVDumbledore
p6520
aVNo Dumbledore
p6521
aVDumbledore
p6522
aVDumbledore
p6523
aVDumbledore
p6524
aVDumbledore
p6525
aVDumbledore
p6526
aVDumbledore
p6527
aVDumbledore
p6528
aVDumbledore
p6529
aVAlbus Dumbledore
p6530
aVDumbledore
p6531
aVDumbledore
p6532
aVDumbledore
p6533
aVDumbledore
p6534
aVDumbledore
p6535
aVDumbledore
p6536
aVDumbledore
p6537
ag6537
aVDumbledore
p6538
aVDumbledore
p6539
aVDumbledore
p6540
aVDumbledore
p6541
aVProfessor Dumbledore
p6542
aVDumbledore
p6543
aVDumbledore
p6544
aVDumbledore
p6545
aVDumbledore
p6546
aVDumbledore
p6547
aVDumbledore
p6548
aVProfessor Dumbledore
p6549
aVDumbledore
p6550
aVDumbledore
p6551
aVDumbledore
p6552
aVDumbledore
p6553
aVDumbledore
p6554
aVDumbledore
p6555
aVDumbledore
p6556
aVDumbledore
p6557
aVDumbledore
p6558
aVDumbledore
p6559
aVDumbledore
p6560
aVDumbledore
p6561
aVDumbledore
p6562
aVDumbledore
p6563
aVDumbledore
p6564
aVDumbledore
p6565
aVDumbledore
p6566
aVDumbledore
p6567
aVDumbledore
p6568
aVProfessor Dumbledore
p6569
aVDumbledore
p6570
aVDumbledore firmly
p6571
aVDumbledore loudly
p6572
aVDumbledore and Hagrid
p6573
aVDumbledore always
p6574
aVDumbledore and Harry
p6575
aVDumbledore calmly
p6576
aVDumbledore calmly
p6577
aVDumbledore simply
p6578
aVDumbledore calmly
p6579
aVProfessor Dumbledore...Riddle
p6580
aVProfessor Dumbledore...Riddle
p6581
asVfaintly
p6582
(lp6583
VRon faintly
p6584
asVCornelius
p6585
(lp6586
g6585
aVCornelius
p6587
aVCornelius
p6588
aVCornelius
p6589
asVfervently
p6590
(lp6591
VRon fervently
p6592
asVFlitwick
p6593
(lp6594
Vme Flitwick
p6595
aVProfessor Flitwick
p6596
aVProfessor Flitwick
p6597
aVProfessor Flitwick
p6598
aVProfessor Flitwick and Professor Sinistra
p6599
asVdelicately
p6600
(lp6601
VLockhart delicately
p6602
asVFame
p6603
(lp6604
g6603
asVRelief
p6605
(lp6606
g6605
asccopy_reg
_reconstructor
p6607
(cnetworkx.classes.graph
Graph
p6608
cdill._dill
_load_type
p6609
(S'ObjectType'
p6610
tp6611
Rp6612
Ntp6613
Rp6614
(dp6615
S'node'
p6616
(dp6617
g1
(dp6618
S'length'
p6619
I1
ssVPetunias
p6620
(dp6621
g6619
I1
ssVSerpent-tongue
p6622
(dp6623
g6619
I1
ssVNoooooo
p6624
(dp6625
g6619
I1
ssVFleet
p6626
(dp6627
g6619
I1
ssVSorcerer
p6628
(dp6629
g6619
I1
ssg3
(dp6630
g6619
I20
ssVBrown
p6631
(dp6632
g6619
I2
ssg701
(dp6633
g6619
I1
ssVClaus
p6634
(dp6635
g6619
I1
ssVMalfoys
p6636
(dp6637
g6619
I3
ssVLucky
p6638
(dp6639
g6619
I1
ssg24
(dp6640
g6619
I4
ssVhouse-elf
p6641
(dp6642
g6619
I2
ssVfinally
p6643
(dp6644
g6619
I2
ssg31
(dp6645
g6619
I3
ssVcarelessly
p6646
(dp6647
g6619
I1
ssVdramatically
p6648
(dp6649
g6619
I1
ssVLeague
p6650
(dp6651
g6619
I2
ssVTraining
p6652
(dp6653
g6619
I1
ssVCheese
p6654
(dp6655
g6619
I1
ssg35
(dp6656
g6619
I1
ssg37
(dp6657
g6619
I31
ssVWands
p6658
(dp6659
g6619
I1
ssVI'd
p6660
(dp6661
g6619
I25
ssVEnchantments
p6662
(dp6663
g6619
I1
ssVCleansweeps
p6664
(dp6665
g6619
I1
ssVThomas
p6666
(dp6667
g6619
I7
ssVWeasleys
p6668
(dp6669
g6619
I26
ssVMidnight
p6670
(dp6671
g6619
I1
ssVaccidentally
p6672
(dp6673
g6619
I1
ssVblankly
p6674
(dp6675
g6619
I1
ssVCourse
p6676
(dp6677
g6619
I3
ssVDefense
p6678
(dp6679
g6619
I12
ssVPerfect...Dudley
p6680
(dp6681
g6619
I1
ssVPetunia
p6682
(dp6683
g6619
I30
ssg186
(dp6684
g6619
I99
ssVMerlin
p6685
(dp6686
g6619
I2
ssVcurtly
p6687
(dp6688
g6619
I1
ssVW-where
p6689
(dp6690
g6619
I1
ssg282
(dp6691
g6619
I9
ssVWeasley
p6692
(dp6693
g6619
I176
ssVSkele-Gro
p6694
(dp6695
g6619
I3
ssVBulstrode
p6696
(dp6697
g6619
I7
ssVcrisply
p6698
(dp6699
g6619
I1
ssVEasy
p6700
(dp6701
g6619
I1
ssg393
(dp6702
g6619
I46
ssVHead
p6703
(dp6704
g6619
I6
ssVtensely
p6705
(dp6706
g6619
I2
ssVGilderoy
p6707
(dp6708
g6619
I39
ssVLumos
p6709
(dp6710
g6619
I2
ssg501
(dp6711
g6619
I8
ssVGrangers
p6712
(dp6713
g6619
I4
ssVBoys
p6714
(dp6715
g6619
I2
ssg516
(dp6716
g6619
I2
ssVlazily
p6717
(dp6718
g6619
I2
ssVreverently
p6719
(dp6720
g6619
I1
ssg519
(dp6721
g6619
I4
ssVGalleon
p6722
(dp6723
g6619
I2
ssVNeville
p6724
(dp6725
g6619
I31
ssVCharlie
p6726
(dp6727
g6619
I4
ssVProfessor
p6728
(dp6729
g6619
I192
ssg682
(dp6730
g6619
I12
ssg696
(dp6731
g6619
I3
ssVArthur
p6732
(dp6733
g6619
I16
ssVChampionship
p6734
(dp6735
g6619
I2
ssVEnglish
p6736
(dp6737
g6619
I1
ssVwearily
p6738
(dp6739
g6619
I1
ssVquite
p6740
(dp6741
g6619
I1
ssVConfederation
p6742
(dp6743
g6619
I1
ssVBludger
p6744
(dp6745
g6619
I43
ssVHagrid
p6746
(dp6747
g6619
I171
ssVBurkes
p6748
(dp6749
g6619
I3
ssg906
(dp6750
g6619
I5
ssg3460
(dp6751
g6619
I10
ssVOpen
p6752
(dp6753
g6619
I2
ssg913
(dp6754
g6619
I1
ssVRictusempra
p6755
(dp6756
g6619
I1
ssVDead
p6757
(dp6758
g6619
I1
ssVPercy
p6759
(dp6760
g6619
I72
ssVusually
p6761
(dp6762
g6619
I1
ssVPoltergeist
p6763
(dp6764
g6619
I3
ssg2329
(dp6765
g6619
I2
ssVPomfrey
p6766
(dp6767
g6619
I29
ssVThingy
p6768
(dp6769
g6619
I1
ssVsuddenly
p6770
(dp6771
g6619
I13
ssVDung
p6772
(dp6773
g6619
I1
ssg1023
(dp6774
g6619
I8
ssVtestily
p6775
(dp6776
g6619
I1
ssVNick
p6777
(dp6778
g6619
I49
ssVClearwater
p6779
(dp6780
g6619
I2
ssg3922
(dp6781
g6619
I1
ssVprivately
p6782
(dp6783
g6619
I1
ssVSpinnet
p6784
(dp6785
g6619
I2
ssVTom
p6786
(dp6787
g6619
I12
ssVPitiful
p6788
(dp6789
g6619
I1
ssg1075
(dp6790
g6619
I1
ssVStar
p6791
(dp6792
g6619
I1
ssVAugust
p6793
(dp6794
g6619
I1
ssg1077
(dp6795
g6619
I8
ssVJune
p6796
(dp6797
g6619
I3
ssVforcefully
p6798
(dp6799
g6619
I2
ssg1087
(dp6800
g6619
I1
ssVVernon
p6801
(dp6802
g6619
I44
ssVParselmouth
p6803
(dp6804
g6619
I4
ssVAwards
p6805
(dp6806
g6619
I1
ssVbitterly
p6807
(dp6808
g6619
I1
ssVOctober
p6809
(dp6810
g6619
I1
ssg1120
(dp6811
g6619
I15
ssg1137
(dp6812
g6619
I3
ssg2893
(dp6813
g6619
I15
ssVWednesday
p6814
(dp6815
g6619
I3
ssVBee
p6816
(dp6817
g6619
I1
ssVServices
p6818
(dp6819
g6619
I2
ssVEncyclopedia
p6820
(dp6821
g6619
I1
ssVQuaffle
p6822
(dp6823
g6619
I2
ssg1160
(dp6824
g6619
I10
ssVTime
p6825
(dp6826
g6619
I3
ssVdistractedly
p6827
(dp6828
g6619
I1
ssg1172
(dp6829
g6619
I1
ssVSeamus
p6830
(dp6831
g6619
I18
ssVScarhead
p6832
(dp6833
g6619
I1
ssVGadding
p6834
(dp6835
g6619
I3
ssg1158
(dp6836
g6619
I1
ssg1206
(dp6837
g6619
I2
ssg6267
(dp6838
g6619
I1
ssVWizards
p6839
(dp6840
g6619
I1
ssVC-cars
p6841
(dp6842
g6619
I1
ssg1215
(dp6843
g6619
I16
ssVYou!"he
p6844
(dp6845
g6619
I1
ssVErnie
p6846
(dp6847
g6619
I25
ssVConvention
p6848
(dp6849
g6619
I2
ssVCome...come
p6850
(dp6851
g6619
I1
ssVMr.
p6852
(dp6853
g6619
I138
ssg1209
(dp6854
g6619
I4
ssg1326
(dp6855
g6619
I7
ssVSuspension
p6856
(dp6857
g6619
I1
ssVLord
p6858
(dp6859
g6619
I19
ssVHearing
p6860
(dp6861
g6619
I1
ssVChristmas
p6862
(dp6863
g6619
I10
ssVAzkaban
p6864
(dp6865
g6619
I9
ssVfirmly
p6866
(dp6867
g6619
I1
ssVWarbeck
p6868
(dp6869
g6619
I1
ssVGryffindor
p6870
(dp6871
g6619
I63
ssVHorrorstruck
p6872
(dp6873
g6619
I1
ssg1903
(dp6874
g6619
I1
ssVMolly
p6875
(dp6876
g6619
I6
ssVHullo
p6877
(dp6878
g6619
I1
ssVToadstools
p6879
(dp6880
g6619
I1
ssVMillicent
p6881
(dp6882
g6619
I9
ssg1415
(dp6883
g6619
I1
ssVJordan
p6884
(dp6885
g6619
I6
ssVpaternally
p6886
(dp6887
g6619
I1
ssVFebruary
p6888
(dp6889
g6619
I2
ssg1418
(dp6890
g6619
I3
ssVDon
p6891
(dp6892
g6619
I1
ssg1834
(dp6893
g6619
I1
ssVHermione
p6894
(dp6895
g6619
I341
ssVOooh
p6896
(dp6897
g6619
I2
ssg1423
(dp6898
g6619
I1
ssg1696
(dp6899
g6619
I9
ssVBinns
p6900
(dp6901
g6619
I20
ssVSmethley
p6902
(dp6903
g6619
I2
ssg1707
(dp6904
g6619
I1
ssg6281
(dp6905
g6619
I1
ssVFarewell
p6906
(dp6907
g6619
I1
ssVDobby
p6908
(dp6909
g6619
I135
ssVMabel
p6910
(dp6911
g6619
I1
ssVMyrtle
p6912
(dp6913
g6619
I69
ssVPimply
p6914
(dp6915
g6619
I2
ssVSlytherins
p6916
(dp6917
g6619
I14
ssg1905
(dp6918
g6619
I1
ssVShrivelfig
p6919
(dp6920
g6619
I1
ssVDudley
p6921
(dp6922
g6619
I40
ssVOoooh
p6923
(dp6924
g6619
I1
ssVrapturously
p6925
(dp6926
g6619
I1
ssVForces
p6927
(dp6928
g6619
I1
ssVYeti
p6929
(dp6930
g6619
I2
ssVindignantly
p6931
(dp6932
g6619
I1
ssVTips
p6933
(dp6934
g6619
I1
ssg1943
(dp6935
g6619
I7
ssVHogwart
p6936
(dp6937
g6619
I1
ssVCream
p6938
(dp6939
g6619
I1
ssg1952
(dp6940
g6619
I2
ssg1955
(dp6941
g6619
I99
ssVRain
p6942
(dp6943
g6619
I1
ssVactually
p6944
(dp6945
g6619
I1
ssg2006
(dp6946
g6619
I4
ssVCharm
p6947
(dp6948
g6619
I11
ssVNorfolk
p6949
(dp6950
g6619
I1
ssVSerpensortia
p6951
(dp6952
g6619
I1
ssVMusic
p6953
(dp6954
g6619
I2
ssVBugbear
p6955
(dp6956
g6619
I1
ssg3509
(dp6957
g6619
I1
ssVTravels
p6958
(dp6959
g6619
I3
ssVBayliss
p6960
(dp6961
g6619
I1
ssg2026
(dp6962
g6619
I1
ssVnot
p6963
(dp6964
g6619
I2
ssVTopsham
p6965
(dp6966
g6619
I1
ssVTower
p6967
(dp6968
g6619
I11
ssVnow
p6969
(dp6970
g6619
I7
ssVpetulantly
p6971
(dp6972
g6619
I1
ssVStomachache
p6973
(dp6974
g6619
I1
ssg2028
(dp6975
g6619
I3
ssValways
p6976
(dp6977
g6619
I2
ssVFang
p6978
(dp6979
g6619
I35
ssVMasons
p6980
(dp6981
g6619
I4
ssg2033
(dp6982
g6619
I123
ssg2158
(dp6983
g6619
I7
ssVShame
p6984
(dp6985
g6619
I1
ssVfrantically
p6986
(dp6987
g6619
I2
ssVDizzy
p6988
(dp6989
g6619
I2
ssVPolo
p6990
(dp6991
g6619
I1
ssg2167
(dp6992
g6619
I3
ssVcalmly
p6993
(dp6994
g6619
I4
ssVTarantallegra
p6995
(dp6996
g6619
I1
ssVGoshawk
p6997
(dp6998
g6619
I1
ssVArithmancy
p6999
(dp7000
g6619
I1
ssVMedicine
p7001
(dp7002
g6619
I1
ssVLive
p7003
(dp7004
g6619
I1
ssVMum
p7005
(dp7006
g6619
I1
ssg2172
(dp7007
g6619
I1
ssVPeebles
p7008
(dp7009
g6619
I1
ssVScabbers
p7010
(dp7011
g6619
I2
ssVWelcome
p7012
(dp7013
g6619
I2
ssVTut
p7014
(dp7015
g6619
I1
ssVhastily
p7016
(dp7017
g6619
I2
ssg2178
(dp7018
g6619
I59
ssVseriously
p7019
(dp7020
g6619
I1
ssVStiff-legged
p7021
(dp7022
g6619
I1
ssVClass
p7023
(dp7024
g6619
I2
ssVKwikspell
p7025
(dp7026
g6619
I3
ssg2243
(dp7027
g6619
I4
ssg2249
(dp7028
g6619
I7
ssVdarkly
p7029
(dp7030
g6619
I3
ssVAragog
p7031
(dp7032
g6619
I22
ssVParselmouths
p7033
(dp7034
g6619
I1
ssVAaargh
p7035
(dp7036
g6619
I1
ssVGringotts
p7037
(dp7038
g6619
I6
ssVGrade
p7039
(dp7040
g6619
I3
ssg3442
(dp7041
g6619
I1
ssg2281
(dp7042
g6619
I2
ssVNettles
p7043
(dp7044
g6619
I1
ssVTouch
p7045
(dp7046
g6619
I1
ssg2284
(dp7047
g6619
I1
ssg2286
(dp7048
g6619
I2
ssVBeaters
p7049
(dp7050
g6619
I2
ssVHang
p7051
(dp7052
g6619
I3
ssVU-bend
p7053
(dp7054
g6619
I2
ssVmerrily
p7055
(dp7056
g6619
I1
ssg2293
(dp7057
g6619
I7
ssVEvening
p7058
(dp7059
g6619
I2
ssg2301
(dp7060
g6619
I2
ssg2304
(dp7061
g6619
I4
ssVsadly
p7062
(dp7063
g6619
I1
ssg2309
(dp7064
g6619
I12
ssVOoooooh
p7065
(dp7066
g6619
I1
ssVExpelliarmus
p7067
(dp7068
g6619
I3
ssVtoo
p7069
(dp7070
g6619
I1
ssVgroggily
p7071
(dp7072
g6619
I1
ssVwarmly
p7073
(dp7074
g6619
I1
ssVJustin
p7075
(dp7076
g6619
I44
ssVSkulkin
p7077
(dp7078
g6619
I1
ssg2387
(dp7079
g6619
I1
ssVhappily
p7080
(dp7081
g6619
I5
ssVPatrick
p7082
(dp7083
g6619
I8
ssVexactly
p7084
(dp7085
g6619
I1
ssVSkower
p7086
(dp7087
g6619
I1
ssVWarlocks
p7088
(dp7089
g6619
I1
ssg2389
(dp7090
g6619
I2
ssVFlesh-Eatin
p7091
(dp7092
g6619
I1
ssVRoad
p7093
(dp7094
g6619
I2
ssg2392
(dp7095
g6619
I1
ssVMacmillan
p7096
(dp7097
g6619
I5
ssVColin
p7098
(dp7099
g6619
I45
ssg2431
(dp7100
g6619
I1
ssg2434
(dp7101
g6619
I42
ssVOliver
p7102
(dp7103
g6619
I10
ssg2486
(dp7104
g6619
I4
ssVFlying
p7105
(dp7106
g6619
I2
ssg2492
(dp7107
g6619
I6
ssg2499
(dp7108
g6619
I2
ssg2502
(dp7109
g6619
I7
ssVHe'd
p7110
(dp7111
g6619
I8
ssg2518
(dp7112
g6619
I2
ssVgleefully
p7113
(dp7114
g6619
I2
ssg2523
(dp7115
g6619
I1
ssVWhassamatter
p7116
(dp7117
g6619
I1
ssVHiya
p7118
(dp7119
g6619
I1
ssg2528
(dp7120
g6619
I1
ssVHannah
p7121
(dp7122
g6619
I5
ssVThousand
p7123
(dp7124
g6619
I7
ssVAlicia
p7125
(dp7126
g6619
I5
ssVeagerly
p7127
(dp7128
g6619
I8
ssValso
p7129
(dp7130
g6619
I2
ssg2537
(dp7131
g6619
I3
ssVJanuary
p7132
(dp7133
g6619
I1
ssg2541
(dp7134
g6619
I24
ssVBank
p7135
(dp7136
g6619
I1
ssVSeptember
p7137
(dp7138
g6619
I4
ssVswiftly
p7139
(dp7140
g6619
I1
ssVSolution
p7141
(dp7142
g6619
I5
ssVknowingly
p7143
(dp7144
g6619
I1
ssg3463
(dp7145
g6619
I1
ssg1836
(dp7146
g6619
I1
ssVforever
p7147
(dp7148
g6619
I2
ssVviciously
p7149
(dp7150
g6619
I1
ssVEgypt
p7151
(dp7152
g6619
I2
ssg2580
(dp7153
g6619
I1
ssVsometimes
p7154
(dp7155
g6619
I1
ssVMerit
p7156
(dp7157
g6619
I1
ssVBlimey
p7158
(dp7159
g6619
I2
ssVHowler
p7160
(dp7161
g6619
I7
ssVbriskly
p7162
(dp7163
g6619
I4
ssVThree...two...one
p7164
(dp7165
g6619
I1
ssVNorris
p7166
(dp7167
g6619
I27
ssVAncient
p7168
(dp7169
g6619
I2
ssg2634
(dp7170
g6619
I2
ssVfretfully
p7171
(dp7172
g6619
I2
ssg2638
(dp7173
g6619
I13
ssVHat
p7174
(dp7175
g6619
I25
ssVpromptly
p7176
(dp7177
g6619
I1
ssVGudgeon
p7178
(dp7179
g6619
I1
ssg1335
(dp7180
g6619
I1
ssVpainfully
p7181
(dp7182
g6619
I1
ssVAparecium
p7183
(dp7184
g6619
I1
ssVFred
p7185
(dp7186
g6619
I111
ssg2814
(dp7187
g6619
I6
ssVHogwarts
p7188
(dp7189
g6619
I80
ssVTraffic
p7190
(dp7191
g6619
I1
ssg2887
(dp7192
g6619
I4
ssg1142
(dp7193
g6619
I23
ssg2910
(dp7194
g6619
I2
ssg1835
(dp7195
g6619
I1
ssg3452
(dp7196
g6619
I18
ssg2913
(dp7197
g6619
I20
ssg2932
(dp7198
g6619
I2
ssVclosely
p7199
(dp7200
g6619
I3
ssVdistinctly
p7201
(dp7202
g6619
I1
ssg3488
(dp7203
g6619
I2
ssVDelaney-Podmore
p7204
(dp7205
g6619
I1
ssg2935
(dp7206
g6619
I1
ssVLockhart
p7207
(dp7208
g6619
I236
ssVbossily
p7209
(dp7210
g6619
I1
ssVkeenly
p7211
(dp7212
g6619
I1
ssVFinnigan
p7213
(dp7214
g6619
I8
ssVanxiously
p7215
(dp7216
g6619
I1
ssVAlley
p7217
(dp7218
g6619
I17
ssVPesternomi
p7219
(dp7220
g6619
I1
ssVSickles
p7221
(dp7222
g6619
I3
ssVDraco
p7223
(dp7224
g6619
I37
ssg6600
(dp7225
g6619
I1
ssg3175
(dp7226
g6619
I3
ssVGrant
p7227
(dp7228
g6619
I1
ssVskeptically
p7229
(dp7230
g6619
I1
ssVsoothingly
p7231
(dp7232
g6619
I1
ssg3180
(dp7233
g6619
I2
ssg3184
(dp7234
g6619
I1
ssg2525
(dp7235
g6619
I1
ssVRun
p7236
(dp7237
g6619
I1
ssVKnuts
p7238
(dp7239
g6619
I1
ssVNimbus
p7240
(dp7241
g6619
I9
ssg3205
(dp7242
g6619
I3
ssg3210
(dp7243
g6619
I2
ssVShrivelfigs
p7244
(dp7245
g6619
I1
ssVhopefully
p7246
(dp7247
g6619
I2
ssVprobably
p7248
(dp7249
g6619
I1
ssVPucey
p7250
(dp7251
g6619
I3
ssVKing
p7252
(dp7253
g6619
I6
ssVNatural
p7254
(dp7255
g6619
I1
ssVJohnson
p7256
(dp7257
g6619
I1
ssVCreevy
p7258
(dp7259
g6619
I1
ssVArgus
p7260
(dp7261
g6619
I7
ssg3217
(dp7262
g6619
I222
ssVgratefully
p7263
(dp7264
g6619
I1
ssVGalleons
p7265
(dp7266
g6619
I3
ssVBlotts
p7267
(dp7268
g6619
I3
ssg3379
(dp7269
g6619
I3
ssg3384
(dp7270
g6619
I4
ssVicily
p7271
(dp7272
g6619
I1
ssVbarely
p7273
(dp7274
g6619
I3
ssVthickly
p7275
(dp7276
g6619
I2
ssVloudly
p7277
(dp7278
g6619
I10
ssg3389
(dp7279
g6619
I7
ssVMiggs
p7280
(dp7281
g6619
I1
ssVSlytherin
p7282
(dp7283
g6619
I86
ssVYer
p7284
(dp7285
g6619
I1
ssVAnglia
p7286
(dp7287
g6619
I2
ssVGuess
p7288
(dp7289
g6619
I1
ssVFriday
p7290
(dp7291
g6619
I1
ssVSir
p7292
(dp7293
g6619
I12
ssVHufflepuffs
p7294
(dp7295
g6619
I8
ssVSpellotape
p7296
(dp7297
g6619
I2
ssg3421
(dp7298
g6619
I3
ssVMuggle
p7299
(dp7300
g6619
I11
ssVsimply
p7301
(dp7302
g6619
I2
ssVForest
p7303
(dp7304
g6619
I6
ssVHufflepuff
p7305
(dp7306
g6619
I9
ssVSelf-Shuffling
p7307
(dp7308
g6619
I1
ssg3464
(dp7309
g6619
I1
ssVPlay
p7310
(dp7311
g6619
I1
ssVAssembly
p7312
(dp7313
g6619
I1
ssg3467
(dp7314
g6619
I1
ssVUrgh
p7315
(dp7316
g6619
I2
ssVSinistra
p7317
(dp7318
g6619
I1
ssg3470
(dp7319
g6619
I16
ssVbreathlessly
p7320
(dp7321
g6619
I1
ssg3495
(dp7322
g6619
I8
ssVMandrake
p7323
(dp7324
g6619
I8
ssVArts.
p7325
(dp7326
g6619
I3
ssg3505
(dp7327
g6619
I2
ssVPince
p7328
(dp7329
g6619
I6
ssVde-gnoming
p7330
(dp7331
g6619
I1
ssg3510
(dp7332
g6619
I2
ssVDumbledore
p7333
(dp7334
g6619
I166
ssVApparate
p7335
(dp7336
g6619
I2
ssg3513
(dp7337
g6619
I1
ssVAha
p7338
(dp7339
g6619
I1
ssVNight
p7340
(dp7341
g6619
I1
ssVDean
p7342
(dp7343
g6619
I16
ssg3548
(dp7344
g6619
I2
ssVslyly
p7345
(dp7346
g6619
I1
ssVFawkes
p7347
(dp7348
g6619
I33
ssVHalloween
p7349
(dp7350
g6619
I7
ssVOuch
p7351
(dp7352
g6619
I1
ssVEton
p7353
(dp7354
g6619
I2
ssVMudblood
p7355
(dp7356
g6619
I5
ssVMiss
p7357
(dp7358
g6619
I18
ssVMandragora
p7359
(dp7360
g6619
I1
ssVHard
p7361
(dp7362
g6619
I1
ssValmost
p7363
(dp7364
g6619
I6
ssVPipes
p7365
(dp7366
g6619
I2
ssVDecapitated-Podmore
p7367
(dp7368
g6619
I1
ssVO'Flaherty
p7369
(dp7370
g6619
I1
ssVBetter
p7371
(dp7372
g6619
I4
ssg3594
(dp7373
g6619
I44
ssVBludgers
p7374
(dp7375
g6619
I5
ssg1230
(dp7376
g6619
I1
ssg2521
(dp7377
g6619
I1
ssg3458
(dp7378
g6619
I7
ssVAlbus
p7379
(dp7380
g6619
I6
ssVUh-oh
p7381
(dp7382
g6619
I3
ssVhelpfully
p7383
(dp7384
g6619
I1
ssVSnape
p7385
(dp7386
g6619
I108
ssg3724
(dp7387
g6619
I1
ssVOuagadogou
p7388
(dp7389
g6619
I1
ssVresentfully
p7390
(dp7391
g6619
I1
ssVThird
p7392
(dp7393
g6619
I3
ssVProphet
p7394
(dp7395
g6619
I6
ssVEscape
p7396
(dp7397
g6619
I1
ssVDear
p7398
(dp7399
g6619
I8
ssVjerkily
p7400
(dp7401
g6619
I1
ssg3833
(dp7402
g6619
I1
ssVweakly
p7403
(dp7404
g6619
I7
ssVshortly
p7405
(dp7406
g6619
I1
ssVincredulously
p7407
(dp7408
g6619
I2
ssVHerbology
p7409
(dp7410
g6619
I7
ssVwell
p7411
(dp7412
g6619
I3
ssVobviously
p7413
(dp7414
g6619
I2
ssg2531
(dp7415
g6619
I4
ssg3840
(dp7416
g6619
I11
ssVFawcett
p7417
(dp7418
g6619
I1
ssg3853
(dp7419
g6619
I5
ssg3860
(dp7420
g6619
I3
ssVirritably
p7421
(dp7422
g6619
I2
ssg4042
(dp7423
g6619
I1
ssg3582
(dp7424
g6619
I1
ssVknowledgeably
p7425
(dp7426
g6619
I1
ssVyet
p7427
(dp7428
g6619
I2
ssVRavenclaw
p7429
(dp7430
g6619
I6
ssVHands
p7431
(dp7432
g6619
I1
ssVCatchpole
p7433
(dp7434
g6619
I1
ssg3397
(dp7435
g6619
I14
ssVFlint
p7436
(dp7437
g6619
I12
ssVdully
p7438
(dp7439
g6619
I1
ssg3889
(dp7440
g6619
I1
ssg3892
(dp7441
g6619
I1
ssVPrefect
p7442
(dp7443
g6619
I1
ssVSummer
p7444
(dp7445
g6619
I1
ssVMorning
p7446
(dp7447
g6619
I3
ssg3894
(dp7448
g6619
I3
ssg3909
(dp7449
g6619
I1
ssVSalazar
p7450
(dp7451
g6619
I10
ssg2321
(dp7452
g6619
I1
ssVJiggery
p7453
(dp7454
g6619
I1
ssVapart
p7455
(dp7456
g6619
I1
ssVShop
p7457
(dp7458
g6619
I1
ssVAlbania
p7459
(dp7460
g6619
I1
ssVsincerely
p7461
(dp7462
g6619
I1
ssg1202
(dp7463
g6619
I2
ssVsternly
p7464
(dp7465
g6619
I2
ssVBook
p7466
(dp7467
g6619
I3
ssVLondon
p7468
(dp7469
g6619
I7
ssVhollowly
p7470
(dp7471
g6619
I1
ssVFine
p7472
(dp7473
g6619
I2
ssVRubeus
p7474
(dp7475
g6619
I3
ssVBorgin
p7476
(dp7477
g6619
I20
ssVGryffindors
p7478
(dp7479
g6619
I17
ssg3925
(dp7480
g6619
I1
ssVDumbledore...Riddle
p7481
(dp7482
g6619
I1
ssg3929
(dp7483
g6619
I2
ssg3932
(dp7484
g6619
I16
ssVproudly
p7485
(dp7486
g6619
I2
ssg4704
(dp7487
g6619
I14
ssg3950
(dp7488
g6619
I10
ssVMaster
p7489
(dp7490
g6619
I4
ssVhurriedly
p7491
(dp7492
g6619
I1
ssVLongbottom
p7493
(dp7494
g6619
I10
ssVCrabbe
p7495
(dp7496
g6619
I37
ssVMajorca
p7497
(dp7498
g6619
I1
ssVLee
p7499
(dp7500
g6619
I7
ssVUnconscious
p7501
(dp7502
g6619
I1
ssg3640
(dp7503
g6619
I1
ssVMarvolo
p7504
(dp7505
g6619
I1
ssVMason....Do
p7506
(dp7507
g6619
I1
ssVSeverus
p7508
(dp7509
g6619
I6
ssVPrefects
p7510
(dp7511
g6619
I1
ssVSchool
p7512
(dp7513
g6619
I2
ssVHopkirk
p7514
(dp7515
g6619
I1
ssVDunno
p7516
(dp7517
g6619
I3
ssg4034
(dp7518
g6619
I6
ssVLucius
p7519
(dp7520
g6619
I28
ssg1156
(dp7521
g6619
I1
ssVsquarely
p7522
(dp7523
g6619
I1
ssVCrash
p7524
(dp7525
g6619
I1
ssg3829
(dp7526
g6619
I3
ssVcoldly
p7527
(dp7528
g6619
I3
ssVFirst
p7529
(dp7530
g6619
I1
ssVAngelina
p7531
(dp7532
g6619
I3
ssVRomania
p7533
(dp7534
g6619
I1
ssVYou'd
p7535
(dp7536
g6619
I7
ssVRon
p7537
(dp7538
g6619
I738
ssVValentine
p7539
(dp7540
g6619
I1
ssg4677
(dp7541
g6619
I1
ssVLockharts
p7542
(dp7543
g6619
I3
ssVCaptain
p7544
(dp7545
g6619
I2
ssVnastily
p7546
(dp7547
g6619
I1
ssg4680
(dp7548
g6619
I1
ssVKatie
p7549
(dp7550
g6619
I2
ssg4683
(dp7551
g6619
I1
ssg4686
(dp7552
g6619
I3
ssVBaron
p7553
(dp7554
g6619
I1
ssVCup
p7555
(dp7556
g6619
I2
ssVPipes...Ron
p7557
(dp7558
g6619
I1
ssVArts
p7559
(dp7560
g6619
I2
ssVRemover
p7561
(dp7562
g6619
I1
ssVdown
p7563
(dp7564
g6619
I3
ssVDraft
p7565
(dp7566
g6619
I1
ssVIncantatem
p7567
(dp7568
g6619
I1
ssg4024
(dp7569
g6619
I1
ssg2324
(dp7570
g6619
I2
ssVWerewolf
p7571
(dp7572
g6619
I1
ssVforward
p7573
(dp7574
g6619
I1
ssVgraciously
p7575
(dp7576
g6619
I1
ssVErrol
p7577
(dp7578
g6619
I9
ssVArms
p7579
(dp7580
g6619
I1
ssg4720
(dp7581
g6619
I1
ssVChamber
p7582
(dp7583
g6619
I76
ssVcuriously
p7584
(dp7585
g6619
I3
ssVHags
p7586
(dp7587
g6619
I2
ssVHarry
p7588
(dp7589
g6619
I1824
ssg6268
(dp7590
g6619
I1
ssVGuide
p7591
(dp7592
g6619
I2
ssVOffice
p7593
(dp7594
g6619
I4
ssg64
(dp7595
g6619
I1
ssVHouse
p7596
(dp7597
g6619
I13
ssVCauldron
p7598
(dp7599
g6619
I3
ssVOpened....What
p7600
(dp7601
g6619
I1
ssg6282
(dp7602
g6619
I21
ssVcautiously
p7603
(dp7604
g6619
I2
ssVMosag
p7605
(dp7606
g6619
I1
ssVWell...all
p7607
(dp7608
g6619
I1
ssVHufliepuffs
p7609
(dp7610
g6619
I2
ssVbrightly
p7611
(dp7612
g6619
I4
ssVDursley
p7613
(dp7614
g6619
I4
ssVFirewhisky
p7615
(dp7616
g6619
I1
ssVbleakly
p7617
(dp7618
g6619
I1
ssVDidsbury
p7619
(dp7620
g6619
I1
ssVCross
p7621
(dp7622
g6619
I4
ssVtogether
p7623
(dp7624
g6619
I4
ssVGinny...and
p7625
(dp7626
g6619
I1
ssVGinny
p7627
(dp7628
g6619
I120
ssg6405
(dp7629
g6619
I1
ssg6408
(dp7630
g6619
I5
ssg6415
(dp7631
g6619
I1
ssVPennyfeather
p7632
(dp7633
g6619
I1
ssVGotcha
p7634
(dp7635
g6619
I1
ssg6418
(dp7636
g6619
I7
ssVother
p7637
(dp7638
g6619
I6
ssVMouth
p7639
(dp7640
g6619
I3
ssg6433
(dp7641
g6619
I2
ssVPassword
p7642
(dp7643
g6619
I1
ssVMedal
p7644
(dp7645
g6619
I1
ssVNibbles
p7646
(dp7647
g6619
I1
ssVSmeltings
p7648
(dp7649
g6619
I1
ssVGreat
p7650
(dp7651
g6619
I24
ssVBaking
p7652
(dp7653
g6619
I1
ssVSword
p7654
(dp7655
g6619
I1
ssVObliviate
p7656
(dp7657
g6619
I1
ssg4027
(dp7658
g6619
I5
ssg6582
(dp7659
g6619
I1
ssVDrive
p7660
(dp7661
g6619
I7
ssVTentacula
p7662
(dp7663
g6619
I1
ssVgenially
p7664
(dp7665
g6619
I1
ssVWet-Start
p7666
(dp7667
g6619
I1
ssg6585
(dp7668
g6619
I4
ssg6590
(dp7669
g6619
I1
ssVAct
p7670
(dp7671
g6619
I3
ssVFlitwick
p7672
(dp7673
g6619
I9
ssVreassuringly
p7674
(dp7675
g6619
I1
ssVKent...It
p7676
(dp7677
g6619
I1
ssVgruffly
p7678
(dp7679
g6619
I2
ssVSaturday
p7680
(dp7681
g6619
I2
ssVStars
p7682
(dp7683
g6619
I3
ssVScott
p7684
(dp7685
g6619
I1
ssg6603
(dp7686
g6619
I1
ssg6605
(dp7687
g6619
I1
sssS'node_dict_factory'
p7688
g6609
(S'DictType'
p7689
tp7690
Rp7691
sS'edge_attr_dict_factory'
p7692
g7691
sS'edge'
p7693
(dp7694
g1
(dp7695
sg6620
(dp7696
sg6622
(dp7697
VSlytherin
p7698
(dp7699
S'paired'
p7700
I01
sS'value'
p7701
I1
sssg6624
(dp7702
sg6626
(dp7703
sg6628
(dp7704
sg3
(dp7705
sg6631
(dp7706
VMiss
p7707
(dp7708
g7700
I01
sg7701
I1
sssg701
(dp7709
VRon
p7710
(dp7711
g7700
I01
sg7701
I1
sssg6634
(dp7712
sg6636
(dp7713
VMr.
p7714
(dp7715
g7700
I00
sg7701
I1
sssg6638
(dp7716
sg24
(dp7717
sg6641
(dp7718
sg6643
(dp7719
VGinny
p7720
(dp7721
g7700
I01
sg7701
I1
ssVFred
p7722
(dp7723
g7700
I01
sg7701
I1
sssg31
(dp7724
sg6646
(dp7725
g7436
(dp7726
g7700
I01
sg7701
I1
sssg6648
(dp7727
g6912
(dp7728
g7700
I01
sg7701
I1
sssg6650
(dp7729
g6678
(dp7730
g7700
I01
sg7701
I2
sssg6652
(dp7731
sg6654
(dp7732
g6947
(dp7733
g7700
I01
sg7701
I1
sssg35
(dp7734
sg37
(dp7735
g6858
(dp7736
g7700
I01
sg7701
I13
sssg6658
(dp7737
sg6660
(dp7738
Vstill
p7739
(dp7740
g7700
I00
sg7701
I1
ssVnever
p7741
(dp7742
g7700
I00
sg7701
I3
ssVjust
p7743
(dp7744
g7700
I00
sg7701
I1
sssg6662
(dp7745
sg6664
(dp7746
sg6666
(dp7747
VSeamus
p7748
(dp7749
g7700
I00
sg7701
I2
ssVFinnigan
p7750
(dp7751
g7700
I00
sg7701
I2
ssVloudly
p7752
(dp7753
g7700
I00
sg7701
I1
ssg7342
(dp7754
g7700
I01
sg7701
I6
sssg6668
(dp7755
sg6670
(dp7756
sg6672
(dp7757
VGinny
p7758
(dp7759
g7700
I01
sg7701
I1
sssg6674
(dp7760
VMr.
p7761
(dp7762
g7700
I01
sg7701
I1
ssVWeasley
p7763
(dp7764
g7700
I01
sg7701
I1
sssg6676
(dp7765
sg6678
(dp7766
g6650
g7730
ssg6680
(dp7767
sg6682
(dp7768
VVernon
p7769
(dp7770
g7700
I00
sg7701
I1
ssg6925
(dp7771
g7700
I01
sg7701
I1
ssg7176
(dp7772
g7700
I01
sg7701
I1
sssg186
(dp7773
VHarry
p7774
(dp7775
g7700
I00
sg7701
I1
ssVangrily
p7776
(dp7777
g7700
I00
sg7701
I1
ssVWeasley
p7778
(dp7779
g7700
I00
sg7701
I7
ssVtogether
p7780
(dp7781
g7700
I00
sg7701
I1
ssg7185
(dp7782
g7700
I00
sg7701
I29
sssg6685
(dp7783
sg6687
(dp7784
VProfessor
p7785
(dp7786
g7700
I01
sg7701
I1
ssVMcGonagall
p7787
(dp7788
g7700
I01
sg7701
I1
sssg6689
(dp7789
sg282
(dp7790
sg6692
(dp7791
VPercy
p7792
(dp7793
g7700
I00
sg7701
I7
ssVRon
p7794
(dp7795
g7700
I00
sg7701
I2
ssVGinny
p7796
(dp7797
g7700
I00
sg7701
I13
ssVAct
p7798
(dp7799
g7700
I00
sg7701
I1
ssVPotter
p7800
(dp7801
g7700
I00
sg7701
I1
ssg6732
(dp7802
g7700
I01
sg7701
I6
ssVeagerly
p7803
(dp7804
g7700
I00
sg7701
I2
ssVFred
p7805
(dp7806
g7700
I00
sg7701
I9
ssg6674
g7764
sVMr.
p7807
(dp7808
g7700
I01
sg7701
I50
ssg2932
(dp7809
g7700
I01
sg7701
I1
ssg1160
(dp7810
g7700
I00
sg7701
I2
ssg1142
(dp7811
g7700
I00
sg7701
I3
ssg6931
(dp7812
g7700
I01
sg7701
I1
ssVMiss
p7813
(dp7814
g7700
I00
sg7701
I2
ssVnow
p7815
(dp7816
g7700
I00
sg7701
I1
ssg2389
(dp7817
g7700
I01
sg7701
I1
ssVGeorge
p7818
g7779
sg7455
(dp7819
g7700
I01
sg7701
I1
sssg6694
(dp7820
sg6696
(dp7821
g6881
(dp7822
g7700
I01
sg7701
I6
ssVMiss
p7823
(dp7824
g7700
I00
sg7701
I1
sssg6698
(dp7825
VProfessor
p7826
(dp7827
g7700
I01
sg7701
I1
ssVMcGonagall
p7828
(dp7829
g7700
I01
sg7701
I1
sssg6700
(dp7830
sg393
(dp7831
Vobviously
p7832
(dp7833
g7700
I01
sg7701
I1
ssg7495
(dp7834
g7700
I00
sg7701
I11
sssg6703
(dp7835
g6990
(dp7836
g7700
I01
sg7701
I1
ssg6714
(dp7837
g7700
I01
sg7701
I1
ssVstill
p7838
(dp7839
g7700
I00
sg7701
I1
sssg6705
(dp7840
VRon
p7841
(dp7842
g7700
I01
sg7701
I2
sssg6707
(dp7843
g7207
(dp7844
g7700
I01
sg7701
I34
sssg6709
(dp7845
sg501
(dp7846
sg6712
(dp7847
sg6714
(dp7848
VHead
p7849
g7837
ssg516
(dp7850
sg6717
(dp7851
VSnape
p7852
(dp7853
g7700
I01
sg7701
I1
ssVMalfoy
p7854
(dp7855
g7700
I01
sg7701
I1
sssg6719
(dp7856
VDobby
p7857
(dp7858
g7700
I01
sg7701
I1
sssg519
(dp7859
VHogwarts
p7860
(dp7861
g7700
I00
sg7701
I1
ssVGryffindor
p7862
(dp7863
g7700
I00
sg7701
I1
ssVMuggle
p7864
(dp7865
g7700
I00
sg7701
I1
ssVTower
p7866
(dp7867
g7700
I00
sg7701
I1
ssVSlytherin
p7868
(dp7869
g7700
I00
sg7701
I1
sssg6722
(dp7870
sg6724
(dp7871
g7493
(dp7872
g7700
I01
sg7701
I9
sssg6726
(dp7873
sg6728
(dp7874
g1955
(dp7875
g7700
I01
sg7701
I83
ssg6698
g7827
sg6687
g7786
sVheavily
p7876
(dp7877
g7700
I00
sg7701
I1
ssg1326
(dp7878
g7700
I00
sg7701
I2
ssVDumbledore
p7879
(dp7880
g7700
I00
sg7701
I13
ssVback
p7881
(dp7882
g7700
I00
sg7701
I2
ssVeagerly
p7883
(dp7884
g7700
I00
sg7701
I1
ssg7413
(dp7885
g7700
I01
sg7701
I1
ssg7154
(dp7886
g7700
I01
sg7701
I1
ssValone
p7887
(dp7888
g7700
I00
sg7701
I1
ssg7481
(dp7889
g7700
I01
sg7701
I1
ssg6900
(dp7890
g7700
I01
sg7701
I19
ssg7385
(dp7891
g7700
I00
sg7701
I8
ssg7317
(dp7892
g7700
I01
sg7701
I2
ssVsharply
p7893
(dp7894
g7700
I00
sg7701
I2
ssg7522
(dp7895
g7700
I01
sg7701
I1
ssVslowly
p7896
(dp7897
g7700
I00
sg7701
I1
ssVFlitwick
p7898
(dp7899
g7700
I01
sg7701
I6
ssVweakly
p7900
(dp7901
g7700
I00
sg7701
I1
ssVLockhart
p7902
(dp7903
g7700
I00
sg7701
I10
sssg682
(dp7904
VPomfrey
p7905
(dp7906
g7700
I00
sg7701
I1
ssVHagrid
p7907
(dp7908
g7700
I00
sg7701
I1
ssVYou'd
p7909
(dp7910
g7700
I00
sg7701
I1
ssVHe'd
p7911
(dp7912
g7700
I00
sg7701
I1
ssg6660
g7742
sVBludgers
p7913
(dp7914
g7700
I01
sg7701
I2
ssVDobby
p7915
(dp7916
g7700
I00
sg7701
I2
ssVHarry
p7917
(dp7918
g7700
I00
sg7701
I1
sssg696
(dp7919
VHarry
p7920
(dp7921
g7700
I01
sg7701
I3
sssg6732
(dp7922
VWeasley
p7923
g7802
sg7798
(dp7924
g7700
I00
sg7701
I1
sssg6734
(dp7925
g7596
(dp7926
g7700
I01
sg7701
I2
sssg6736
(dp7927
sg6738
(dp7928
VHarry
p7929
(dp7930
g7700
I01
sg7701
I1
sssg6740
(dp7931
VHarry
p7932
(dp7933
g7700
I01
sg7701
I1
sssg6742
(dp7934
sg6744
(dp7935
g7637
(dp7936
g7700
I00
sg7701
I1
ssVback
p7937
(dp7938
g7700
I00
sg7701
I2
sssg6746
(dp7939
Vfuriously
p7940
(dp7941
g7700
I00
sg7701
I1
ssVhappily
p7942
(dp7943
g7700
I00
sg7701
I1
ssVgrimly
p7944
(dp7945
g7700
I00
sg7701
I1
ssVDumbledore
p7946
(dp7947
g7700
I00
sg7701
I2
ssg7485
(dp7948
g7700
I01
sg7701
I1
ssg7678
(dp7949
g7700
I01
sg7701
I1
ssg7277
(dp7950
g7700
I00
sg7701
I1
ssg7217
(dp7951
g7700
I00
sg7701
I1
ssVnever
p7952
g7908
sVaway
p7953
(dp7954
g7700
I00
sg7701
I1
ssVstill
p7955
(dp7956
g7700
I00
sg7701
I1
ssVurgently
p7957
(dp7958
g7700
I00
sg7701
I1
ssg3379
(dp7959
g7700
I00
sg7701
I1
sssg6748
(dp7960
VBorgin
p7961
(dp7962
g7700
I01
sg7701
I3
sssg906
(dp7963
VMalfoy
p7964
(dp7965
g7700
I00
sg7701
I1
ssVHermione
p7966
(dp7967
g7700
I00
sg7701
I1
ssVRon
p7968
(dp7969
g7700
I01
sg7701
I3
sssg3460
(dp7970
sg6752
(dp7971
sg913
(dp7972
sg6755
(dp7973
sg6757
(dp7974
sg6759
(dp7975
g7464
(dp7976
g7700
I01
sg7701
I2
ssVloudly
p7977
(dp7978
g7700
I00
sg7701
I1
ssg1209
(dp7979
g7700
I00
sg7701
I1
ssg7162
(dp7980
g7700
I00
sg7701
I1
ssVWeasley
p7981
g7793
ssg6761
(dp7982
VDraco
p7983
(dp7984
g7700
I01
sg7701
I1
ssVMalfoy
p7985
(dp7986
g7700
I01
sg7701
I1
sssg6763
(dp7987
sg2329
(dp7988
sg6766
(dp7989
Vwonderingly
p7990
(dp7991
g7700
I01
sg7701
I1
ssVgrimly
p7992
(dp7993
g7700
I00
sg7701
I1
ssVnever
p7994
g7906
sVHermione
p7995
(dp7996
g7700
I00
sg7701
I1
sssg6768
(dp7997
sg6770
(dp7998
g6978
(dp7999
g7700
I00
sg7701
I1
ssVHermione
p8000
(dp8001
g7700
I00
sg7701
I1
ssVDobby
p8002
(dp8003
g7700
I00
sg7701
I1
ssVRon
p8004
(dp8005
g7700
I00
sg7701
I3
ssVHarry
p8006
(dp8007
g7700
I01
sg7701
I7
sssg6772
(dp8008
sg1023
(dp8009
VAlicia
p8010
(dp8011
g7700
I00
sg7701
I1
ssVGeorge
p8012
g7777
sVRon
p8013
(dp8014
g7700
I00
sg7701
I2
ssVHarry
p8015
(dp8016
g7700
I01
sg7701
I4
sssg6775
(dp8017
VWood
p8018
(dp8019
g7700
I01
sg7701
I1
sssg6777
(dp8020
g6405
(dp8021
g7700
I01
sg7701
I1
ssVJustin
p8022
(dp8023
g7700
I00
sg7701
I4
ssVproudly
p8024
(dp8025
g7700
I01
sg7701
I1
ssVeagerly
p8026
(dp8027
g7700
I00
sg7701
I1
ssVquickly
p8028
(dp8029
g7700
I00
sg7701
I1
ssVloudly
p8030
(dp8031
g7700
I00
sg7701
I1
ssg2887
(dp8032
g7700
I00
sg7701
I1
ssg6807
(dp8033
g7700
I01
sg7701
I1
ssVnow
p8034
(dp8035
g7700
I00
sg7701
I1
ssg7029
(dp8036
g7700
I00
sg7701
I1
sssg6779
(dp8037
sg3922
(dp8038
VHarry
p8039
(dp8040
g7700
I01
sg7701
I1
sssg6782
(dp8041
VHarry
p8042
(dp8043
g7700
I01
sg7701
I1
sssg6784
(dp8044
g7125
(dp8045
g7700
I01
sg7701
I2
sssg6786
(dp8046
VDear
p8047
(dp8048
g7700
I01
sg7701
I3
sssg6788
(dp8049
sg1075
(dp8050
sg6791
(dp8051
sg6793
(dp8052
sg1077
(dp8053
VHogwarts
p8054
(dp8055
g7700
I01
sg7701
I8
sssg6796
(dp8056
sg6798
(dp8057
VVernon
p8058
(dp8059
g7700
I01
sg7701
I1
ssVHarry
p8060
(dp8061
g7700
I01
sg7701
I1
sssg1087
(dp8062
sg6801
(dp8063
g7613
(dp8064
g7700
I00
sg7701
I1
ssg7149
(dp8065
g7700
I01
sg7701
I1
ssg6798
g8059
sg6921
(dp8066
g7700
I00
sg7701
I1
ssVHarry
p8067
(dp8068
g7700
I00
sg7701
I2
ssg2910
(dp8069
g7700
I01
sg7701
I1
ssVPetunia
p8070
g7770
sg7546
(dp8071
g7700
I01
sg7701
I1
sssg6803
(dp8072
Vonly
p8073
(dp8074
g7700
I00
sg7701
I1
sssg6805
(dp8075
sg6807
(dp8076
VNick
p8077
g8033
ssg6809
(dp8078
sg1120
(dp8079
sg1137
(dp8080
g6766
g7993
sVHagrid
p8081
g7945
sVHarry
p8082
(dp8083
g7700
I00
sg7701
I1
sssg2893
(dp8084
sg6814
(dp8085
g7468
(dp8086
g7700
I00
sg7701
I1
sssg6816
(dp8087
sg6818
(dp8088
sg6820
(dp8089
sg6822
(dp8090
sg1160
(dp8091
VDumbledore
p8092
(dp8093
g7700
I00
sg7701
I1
ssVRon
p8094
(dp8095
g7700
I00
sg7701
I3
ssVProfessor
p8096
g7894
sVMcGonagall
p8097
(dp8098
g7700
I00
sg7701
I2
ssVWeasley
p8099
g7810
sVMalfoy
p8100
(dp8101
g7700
I00
sg7701
I1
ssVMr.
p8102
(dp8103
g7700
I00
sg7701
I2
ssVHermione
p8104
(dp8105
g7700
I00
sg7701
I1
sssg6825
(dp8106
sg6827
(dp8107
VHarry
p8108
(dp8109
g7700
I01
sg7701
I1
sssg1172
(dp8110
VRon
p8111
(dp8112
g7700
I01
sg7701
I1
sssg6830
(dp8113
g7213
(dp8114
g7700
I01
sg7701
I5
ssVDean
p8115
(dp8116
g7700
I00
sg7701
I1
ssVThomas
p8117
g7749
ssg6832
(dp8118
sg6834
(dp8119
sg1158
(dp8120
sg1206
(dp8121
sg6267
(dp8122
sg6839
(dp8123
sg6841
(dp8124
sg1215
(dp8125
sg6844
(dp8126
sg6846
(dp8127
VHufflepuff
p8128
(dp8129
g7700
I00
sg7701
I1
ssVHannah
p8130
(dp8131
g7700
I01
sg7701
I3
ssg7139
(dp8132
g7700
I01
sg7701
I1
ssg1230
(dp8133
g7700
I01
sg7701
I1
ssg7096
(dp8134
g7700
I01
sg7701
I3
sssg6848
(dp8135
sg6850
(dp8136
sg6852
(dp8137
g7613
(dp8138
g7700
I01
sg7701
I2
ssVsmoothly
p8139
(dp8140
g7700
I01
sg7701
I1
ssValmost
p8141
(dp8142
g7700
I00
sg7701
I1
ssVWeasley
p8143
g7808
sg3950
(dp8144
g7700
I01
sg7701
I5
ssg6931
(dp8145
g7700
I01
sg7701
I1
ssg2178
(dp8146
g7700
I00
sg7701
I1
ssg6636
g7715
sg7803
(dp8147
g7700
I00
sg7701
I2
ssVCreevey
p8148
(dp8149
g7700
I00
sg7701
I1
ssg7506
(dp8150
g7700
I01
sg7701
I1
ssVslowly
p8151
(dp8152
g7700
I00
sg7701
I1
ssVGranger
p8153
(dp8154
g7700
I00
sg7701
I4
ssVclosely
p8155
(dp8156
g7700
I00
sg7701
I1
ssVMalfoy
p8157
(dp8158
g7700
I00
sg7701
I37
ssg2389
(dp8159
g7700
I01
sg7701
I1
ssg2932
(dp8160
g7700
I01
sg7701
I1
ssg1160
g8103
sg7527
(dp8161
g7700
I00
sg7701
I1
ssg7455
(dp8162
g7700
I01
sg7701
I2
ssg7405
(dp8163
g7700
I01
sg7701
I1
ssVPotter
p8164
(dp8165
g7700
I00
sg7701
I3
ssg6674
g7762
sg7476
(dp8166
g7700
I01
sg7701
I15
sssg1209
(dp8167
VPercy
p8168
g7979
sVAragog
p8169
(dp8170
g7700
I00
sg7701
I1
ssVHarry
p8171
(dp8172
g7700
I01
sg7701
I2
sssg1326
(dp8173
VProfessor
p8174
g7878
sVcuriously
p8175
(dp8176
g7700
I00
sg7701
I1
sssg6856
(dp8177
sg6858
(dp8178
g37
g7736
ssg6860
(dp8179
sg6862
(dp8180
sg6864
(dp8181
sg6866
(dp8182
VDumbledore
p8183
(dp8184
g7700
I01
sg7701
I1
sssg6868
(dp8185
sg6870
(dp8186
g6270
(dp8187
g7700
I00
sg7701
I3
ssg6967
(dp8188
g7700
I01
sg7701
I10
ssVSlytherin
p8189
(dp8190
g7700
I00
sg7701
I1
ssVever
p8191
g7863
sg7049
(dp8192
g7700
I01
sg7701
I1
sssg6872
(dp8193
sg1903
(dp8194
sg6875
(dp8195
sg6877
(dp8196
sg6879
(dp8197
sg6881
(dp8198
VBulstrode
p8199
g7822
ssg1415
(dp8200
VMalfoy
p8201
(dp8202
g7700
I01
sg7701
I1
sssg6884
(dp8203
g7499
(dp8204
g7700
I01
sg7701
I6
sssg6886
(dp8205
VLockhart
p8206
(dp8207
g7700
I01
sg7701
I1
sssg6888
(dp8208
sg1418
(dp8209
VHagrid
p8210
g7941
sVRon
p8211
(dp8212
g7700
I00
sg7701
I1
ssVHarry
p8213
(dp8214
g7700
I00
sg7701
I1
sssg6891
(dp8215
sg1834
(dp8216
sg6894
(dp8217
g2324
(dp8218
g7700
I01
sg7701
I1
ssVPomfrey
p8219
g7996
sVsuddenly
p8220
g8001
sg7229
(dp8221
g7700
I01
sg7701
I1
ssg7425
(dp8222
g7700
I01
sg7701
I1
ssg2525
(dp8223
g7700
I01
sg7701
I1
ssg7062
(dp8224
g7700
I01
sg7701
I1
ssVeagerly
p8225
(dp8226
g7700
I00
sg7701
I1
ssVquickly
p8227
(dp8228
g7700
I00
sg7701
I1
ssVslowly
p8229
(dp8230
g7700
I00
sg7701
I1
ssVexcitedly
p8231
(dp8232
g7700
I00
sg7701
I1
ssg1142
(dp8233
g7700
I01
sg7701
I8
ssg6433
(dp8234
g7700
I01
sg7701
I1
ssVnervously
p8235
(dp8236
g7700
I00
sg7701
I1
ssVJustin
p8237
(dp8238
g7700
I00
sg7701
I1
ssVdarkly
p8239
(dp8240
g7700
I00
sg7701
I1
ssg4720
(dp8241
g7700
I01
sg7701
I1
ssVsharply
p8242
g8105
sVHarry
p8243
(dp8244
g7700
I00
sg7701
I8
ssVcoldly
p8245
(dp8246
g7700
I00
sg7701
I1
ssg7611
(dp8247
g7700
I00
sg7701
I1
ssVenthusiastically
p8248
(dp8249
g7700
I00
sg7701
I1
ssVRon
p8250
(dp8251
g7700
I00
sg7701
I33
ssg7211
(dp8252
g7700
I01
sg7701
I1
ssVimpatiently
p8253
g7967
sg7215
(dp8254
g7700
I01
sg7701
I1
ssVcautiously
p8255
(dp8256
g7700
I01
sg7701
I1
ssVhastily
p8257
(dp8258
g7700
I01
sg7701
I1
ssVbriskly
p8259
(dp8260
g7700
I01
sg7701
I2
sssg6896
(dp8261
sg1423
(dp8262
sg1696
(dp8263
sg6900
(dp8264
VProfessor
p8265
g7890
sg7896
(dp8266
g7700
I00
sg7701
I1
sssg6902
(dp8267
sg1707
(dp8268
VHarry
p8269
(dp8270
g7700
I01
sg7701
I1
sssg6281
(dp8271
sg6906
(dp8272
sg6908
(dp8273
Vonly
p8274
(dp8275
g7700
I00
sg7701
I1
ssg7345
(dp8276
g7700
I01
sg7701
I1
ssValmost
p8277
(dp8278
g7700
I00
sg7701
I1
ssg682
g7916
sVback
p8279
(dp8280
g7700
I00
sg7701
I2
ssVsuddenly
p8281
g8003
sg7019
(dp8282
g7700
I01
sg7701
I1
ssg6719
g7858
sg3889
(dp8283
g7700
I01
sg7701
I1
ssVColin
p8284
(dp8285
g7700
I00
sg7701
I1
sssg6910
(dp8286
sg6912
(dp8287
Vhappily
p8288
(dp8289
g7700
I00
sg7701
I1
ssVbrightly
p8290
(dp8291
g7700
I00
sg7701
I1
ssg6648
g7728
sVmiserably
p8292
(dp8293
g7700
I00
sg7701
I1
sssg6914
(dp8294
sg6916
(dp8295
g6976
(dp8296
g7700
I01
sg7701
I1
ssg7147
(dp8297
g7700
I01
sg7701
I1
ssVother
p8298
(dp8299
g7700
I00
sg7701
I1
sssg1905
(dp8300
VHarry
p8301
(dp8302
g7700
I01
sg7701
I1
sssg6919
(dp8303
sg6921
(dp8304
VVernon
p8305
g8066
sVDursley
p8306
(dp8307
g7700
I00
sg7701
I1
sssg6923
(dp8308
sg6925
(dp8309
VPetunia
p8310
g7771
ssg6927
(dp8311
sg6929
(dp8312
sg6931
(dp8313
VMr.
p8314
g8145
sVWeasley
p8315
g7812
ssg6933
(dp8316
sg1943
(dp8317
VHead
p8318
g7839
sVI'd
p8319
g7740
sVRon
p8320
(dp8321
g7700
I00
sg7701
I1
ssVMalfoy
p8322
(dp8323
g7700
I00
sg7701
I1
ssVHagrid
p8324
g7956
ssg6936
(dp8325
sg6938
(dp8326
sg1952
(dp8327
sg1955
(dp8328
g7900
(dp8329
g7700
I00
sg7701
I1
ssg6687
g7788
sVRon
p8330
(dp8331
g7700
I00
sg7701
I1
ssg7876
(dp8332
g7700
I00
sg7701
I1
ssg6728
g7875
sg7154
(dp8333
g7700
I01
sg7701
I1
ssVback
p8334
(dp8335
g7700
I00
sg7701
I1
ssg7883
(dp8336
g7700
I00
sg7701
I1
ssg6698
g7829
sVSnape
p8337
(dp8338
g7700
I00
sg7701
I2
ssg7893
g8098
sg7887
(dp8339
g7700
I00
sg7701
I1
sssg6942
(dp8340
sg6944
(dp8341
VJustin
p8342
(dp8343
g7700
I01
sg7701
I1
sssg2006
(dp8344
sg6947
(dp8345
g6654
g7733
ssg6949
(dp8346
sg6951
(dp8347
sg6953
(dp8348
sg6955
(dp8349
sg3509
(dp8350
sg6958
(dp8351
sg6960
(dp8352
sg2026
(dp8353
sg6963
(dp8354
g7371
(dp8355
g7700
I01
sg7701
I2
sssg6965
(dp8356
sg6967
(dp8357
VGryffindor
p8358
g8188
sg8191
g7867
ssg6969
(dp8359
g7328
(dp8360
g7700
I00
sg7701
I1
ssVPotter
p8361
(dp8362
g7700
I00
sg7701
I2
ssVWeasley
p8363
g7816
sVNick
p8364
g8035
sVHarry
p8365
(dp8366
g7700
I01
sg7701
I3
ssVLockhart
p8367
(dp8368
g7700
I00
sg7701
I1
sssg6971
(dp8369
VMalfoy
p8370
(dp8371
g7700
I01
sg7701
I1
sssg6973
(dp8372
sg2028
(dp8373
VRon
p8374
(dp8375
g7700
I00
sg7701
I1
ssVHarry
p8376
(dp8377
g7700
I01
sg7701
I2
sssg6976
(dp8378
VDumbledore
p8379
(dp8380
g7700
I01
sg7701
I1
ssVSlytherins
p8381
g8296
ssg6978
(dp8382
Vsuddenly
p8383
g7999
sVRon
p8384
(dp8385
g7700
I00
sg7701
I2
sssg6980
(dp8386
sg2033
(dp8387
Vonly
p8388
(dp8389
g7700
I00
sg7701
I1
ssVMalfoy
p8390
(dp8391
g7700
I00
sg7701
I1
ssVWeasley
p8392
g7801
sVMr.
p8393
g8165
sVother
p8394
(dp8395
g7700
I00
sg7701
I1
ssVHarry
p8396
(dp8397
g7700
I01
sg7701
I71
ssg7398
(dp8398
g7700
I00
sg7701
I1
ssg6969
g8362
ssg2158
(dp8399
sg6984
(dp8400
sg6986
(dp8401
VHarry
p8402
(dp8403
g7700
I01
sg7701
I2
sssg6988
(dp8404
sg6990
(dp8405
g6703
g7836
ssg2167
(dp8406
sg6993
(dp8407
VDumbledore
p8408
(dp8409
g7700
I01
sg7701
I4
sssg6995
(dp8410
sg6997
(dp8411
sg6999
(dp8412
sg7001
(dp8413
sg7003
(dp8414
sg7005
(dp8415
sg2172
(dp8416
g7582
(dp8417
g7700
I01
sg7701
I1
sssg7008
(dp8418
sg7010
(dp8419
sg7012
(dp8420
sg7014
(dp8421
sg7016
(dp8422
VHermione
p8423
g8258
sVHarry
p8424
(dp8425
g7700
I01
sg7701
I1
sssg2178
(dp8426
VMr.
p8427
g8146
sg7260
(dp8428
g7700
I01
sg7701
I3
ssVback
p8429
(dp8430
g7700
I00
sg7701
I2
sssg7019
(dp8431
VDobby
p8432
g8282
ssg7021
(dp8433
sg7023
(dp8434
g7392
(dp8435
g7700
I01
sg7701
I2
sssg7025
(dp8436
sg2243
(dp8437
VHermione
p8438
g8236
sVRon
p8439
(dp8440
g7700
I00
sg7701
I1
ssVHarry
p8441
(dp8442
g7700
I01
sg7701
I2
sssg2249
(dp8443
sg7029
(dp8444
VNick
p8445
g8036
sVHermione
p8446
g8240
sVHarry
p8447
(dp8448
g7700
I00
sg7701
I1
sssg7031
(dp8449
g7171
(dp8450
g7700
I01
sg7701
I2
ssVfiercely
p8451
g8170
sVslowly
p8452
(dp8453
g7700
I00
sg7701
I1
sssg7033
(dp8454
sg7035
(dp8455
sg7037
(dp8456
g7135
(dp8457
g7700
I01
sg7701
I1
sssg7039
(dp8458
sg3442
(dp8459
sg2281
(dp8460
g7121
(dp8461
g7700
I01
sg7701
I1
ssVRon
p8462
(dp8463
g7700
I01
sg7701
I1
sssg7043
(dp8464
sg7045
(dp8465
sg2284
(dp8466
sg2286
(dp8467
VDumbledore
p8468
(dp8469
g7700
I01
sg7701
I1
ssg7627
(dp8470
g7700
I01
sg7701
I1
sssg7049
(dp8471
VGryffindor
p8472
g8192
ssg7051
(dp8473
sg7053
(dp8474
sg7055
(dp8475
VHarry
p8476
(dp8477
g7700
I01
sg7701
I1
sssg2293
(dp8478
sg7058
(dp8479
g7394
(dp8480
g7700
I01
sg7701
I1
sssg2301
(dp8481
VDumbledore
p8482
(dp8483
g7700
I01
sg7701
I1
ssVHarry
p8484
(dp8485
g7700
I01
sg7701
I1
sssg2304
(dp8486
sg7062
(dp8487
VHermione
p8488
g8224
ssg2309
(dp8489
sg7065
(dp8490
sg7067
(dp8491
sg7069
(dp8492
sg7071
(dp8493
VHarry
p8494
(dp8495
g7700
I01
sg7701
I1
sssg7073
(dp8496
VLockhart
p8497
(dp8498
g7700
I01
sg7701
I1
sssg7075
(dp8499
g3840
(dp8500
g7700
I01
sg7701
I9
ssVhappily
p8501
(dp8502
g7700
I00
sg7701
I1
ssVNick
p8503
g8023
sVHermione
p8504
g8238
sg6944
g8343
ssg7077
(dp8505
sg2387
(dp8506
sg7080
(dp8507
VMyrtle
p8508
g8289
sVHagrid
p8509
g7943
sVJustin
p8510
g8502
sVHarry
p8511
(dp8512
g7700
I01
sg7701
I2
sssg7082
(dp8513
VSir
p8514
(dp8515
g7700
I01
sg7701
I6
ssg7204
(dp8516
g7700
I01
sg7701
I1
sssg7084
(dp8517
VRon
p8518
(dp8519
g7700
I01
sg7701
I1
sssg7086
(dp8520
sg7088
(dp8521
sg2389
(dp8522
VMr.
p8523
g8159
sVWeasley
p8524
g7817
sVRon
p8525
(dp8526
g7700
I01
sg7701
I1
sssg7091
(dp8527
sg7093
(dp8528
sg2392
(dp8529
sg7096
(dp8530
VErnie
p8531
g8134
ssg7098
(dp8532
Vjust
p8533
(dp8534
g7700
I00
sg7701
I1
ssg3932
(dp8535
g7700
I01
sg7701
I9
ssVeagerly
p8536
(dp8537
g7700
I00
sg7701
I2
ssg7320
(dp8538
g7700
I01
sg7701
I1
ssg7258
(dp8539
g7700
I01
sg7701
I1
ssVDobby
p8540
g8285
ssg2431
(dp8541
sg2434
(dp8542
sg7102
(dp8543
g3594
(dp8544
g7700
I01
sg7701
I4
sssg2486
(dp8545
VHagrid
p8546
g7958
sVHarry
p8547
(dp8548
g7700
I01
sg7701
I3
sssg7105
(dp8549
sg2492
(dp8550
sg2499
(dp8551
g7577
(dp8552
g7700
I01
sg7701
I1
ssVDumbledore
p8553
(dp8554
g7700
I01
sg7701
I1
sssg2502
(dp8555
sg7110
(dp8556
g7363
(dp8557
g7700
I00
sg7701
I2
ssg7248
(dp8558
g7700
I01
sg7701
I1
ssVnever
p8559
g7912
ssg2518
(dp8560
VRon
p8561
(dp8562
g7700
I01
sg7701
I1
ssVHarry
p8563
(dp8564
g7700
I01
sg7701
I1
sssg7113
(dp8565
VCrabbe
p8566
(dp8567
g7700
I01
sg7701
I2
sssg2523
(dp8568
sg7116
(dp8569
sg7118
(dp8570
sg2528
(dp8571
sg7121
(dp8572
g2281
g8461
sVErnie
p8573
g8131
ssg7123
(dp8574
g7240
(dp8575
g7700
I01
sg7701
I3
sssg7125
(dp8576
Vangrily
p8577
g8011
sg6784
g8045
ssg7127
(dp8578
VCreevey
p8579
(dp8580
g7700
I00
sg7701
I1
ssVProfessor
p8581
g7884
sVMcGonagall
p8582
g8336
sVColin
p8583
g8537
sVWeasley
p8584
g7804
sVNick
p8585
g8027
sVMr.
p8586
g8147
sVHermione
p8587
g8226
sVFred
p8588
(dp8589
g7700
I00
sg7701
I1
sssg7129
(dp8590
g7188
(dp8591
g7700
I01
sg7701
I1
ssVHarry
p8592
(dp8593
g7700
I01
sg7701
I1
sssg2537
(dp8594
sg7132
(dp8595
sg2541
(dp8596
g7650
(dp8597
g7700
I01
sg7701
I22
sssg7135
(dp8598
g7037
g8457
ssg7137
(dp8599
sg7139
(dp8600
VErnie
p8601
g8132
ssg7141
(dp8602
sg7143
(dp8603
VRon
p8604
(dp8605
g7700
I01
sg7701
I1
sssg3463
(dp8606
sg1836
(dp8607
sg7147
(dp8608
VChamber
p8609
(dp8610
g7700
I01
sg7701
I1
ssg6916
g8297
ssg7149
(dp8611
VVernon
p8612
g8065
ssg7151
(dp8613
sg2580
(dp8614
sg7154
(dp8615
VProfessor
p8616
g7886
sVMcGonagall
p8617
g8333
ssg7156
(dp8618
sg7158
(dp8619
sg7160
(dp8620
Vback
p8621
(dp8622
g7700
I00
sg7701
I1
sssg7162
(dp8623
g6759
g7980
sVWood
p8624
(dp8625
g7700
I00
sg7701
I1
ssVHermione
p8626
g8260
ssg7164
(dp8627
sg7166
(dp8628
VCreevey
p8629
(dp8630
g7700
I00
sg7701
I2
ssVonly
p8631
(dp8632
g7700
I00
sg7701
I1
ssVback
p8633
(dp8634
g7700
I00
sg7701
I1
sssg7168
(dp8635
sg2634
(dp8636
sg7171
(dp8637
g7031
g8450
ssg2638
(dp8638
sg7174
(dp8639
g7347
(dp8640
g7700
I00
sg7701
I3
sssg7176
(dp8641
g6682
g7772
ssg7178
(dp8642
sg1335
(dp8643
sg7181
(dp8644
VRon
p8645
(dp8646
g7700
I01
sg7701
I1
ssVHarry
p8647
(dp8648
g7700
I01
sg7701
I1
sssg7183
(dp8649
sg7185
(dp8650
VRon
p8651
(dp8652
g7700
I00
sg7701
I1
ssg7778
g7806
sg7780
(dp8653
g7700
I00
sg7701
I1
ssg6643
g7723
sg7127
g8589
sg186
g7782
ssg2814
(dp8654
g6803
g8074
sVNorris
p8655
g8632
sVPotter
p8656
g8389
sVDobby
p8657
g8275
sVHarry
p8658
(dp8659
g7700
I01
sg7701
I3
sssg7188
(dp8660
g7129
g8591
sg1077
g8055
sVever
p8661
g7861
sVagain
p8662
(dp8663
g7700
I00
sg7701
I1
sssg7190
(dp8664
sg2887
(dp8665
VNick
p8666
g8032
sVWood
p8667
(dp8668
g7700
I00
sg7701
I1
ssVHermione
p8669
g8232
sVRon
p8670
(dp8671
g7700
I00
sg7701
I1
sssg1142
(dp8672
g7537
(dp8673
g7700
I00
sg7701
I2
ssg6692
g7811
sVMr.
p8674
g8154
sg6894
g8233
sg7355
(dp8675
g7700
I00
sg7701
I1
ssg7357
(dp8676
g7700
I01
sg7701
I10
sssg2910
(dp8677
VVernon
p8678
g8069
sVWood
p8679
(dp8680
g7700
I01
sg7701
I1
sssg1835
(dp8681
sg3452
(dp8682
sg2913
(dp8683
sg2932
(dp8684
VMr.
p8685
g8160
sVWeasley
p8686
g7809
sVHarry
p8687
(dp8688
g7700
I01
sg7701
I1
sssg7199
(dp8689
VMr.
p8690
g8156
sVMalfoy
p8691
(dp8692
g7700
I00
sg7701
I1
ssVHarry
p8693
(dp8694
g7700
I01
sg7701
I2
sssg7201
(dp8695
VHarry
p8696
(dp8697
g7700
I01
sg7701
I1
sssg3488
(dp8698
sg7204
(dp8699
g7292
(dp8700
g7700
I01
sg7701
I1
ssg7082
g8516
ssg2935
(dp8701
VHarry
p8702
(dp8703
g7700
I01
sg7701
I1
sssg7207
(dp8704
g6600
(dp8705
g7700
I01
sg7701
I1
ssVweakly
p8706
(dp8707
g7700
I00
sg7701
I1
ssg7073
g8498
sg6707
g7844
sVRon
p8708
(dp8709
g7700
I00
sg7701
I1
ssg7575
(dp8710
g7700
I01
sg7701
I1
ssVProfessor
p8711
g7903
sg7881
(dp8712
g7700
I00
sg7701
I1
ssVquickly
p8713
(dp8714
g7700
I00
sg7701
I1
ssg7231
(dp8715
g7700
I01
sg7701
I1
ssVloudly
p8716
(dp8717
g7700
I00
sg7701
I1
ssVSnape
p8718
(dp8719
g7700
I00
sg7701
I1
ssg6886
g8207
sVnow
p8720
g8368
sg6415
(dp8721
g7700
I01
sg7701
I1
sssg7209
(dp8722
VHarry
p8723
(dp8724
g7700
I01
sg7701
I1
sssg7211
(dp8725
VHermione
p8726
g8252
ssg7213
(dp8727
g8117
g7751
sg6830
g8114
ssg7215
(dp8728
VHermione
p8729
g8254
ssg7217
(dp8730
g7563
(dp8731
g7700
I00
sg7701
I1
ssVHagrid
p8732
g7951
ssg7219
(dp8733
sg7221
(dp8734
sg7223
(dp8735
g6761
g7984
sg3217
(dp8736
g7700
I01
sg7701
I18
sssg6600
(dp8737
VLockhart
p8738
g8705
ssg3175
(dp8739
VMyrtle
p8740
g8293
sVRon
p8741
(dp8742
g7700
I00
sg7701
I1
ssVHarry
p8743
(dp8744
g7700
I00
sg7701
I1
sssg7227
(dp8745
VMiss
p8746
(dp8747
g7700
I01
sg7701
I1
sssg7229
(dp8748
VHermione
p8749
g8221
ssg7231
(dp8750
VLockhart
p8751
g8715
ssg3180
(dp8752
VRon
p8753
(dp8754
g7700
I01
sg7701
I2
sssg3184
(dp8755
VHarry
p8756
(dp8757
g7700
I01
sg7701
I1
sssg2525
(dp8758
VHermione
p8759
g8223
ssg7236
(dp8760
sg7238
(dp8761
sg7240
(dp8762
g7123
g8575
ssg3205
(dp8763
VHagrid
p8764
g7954
sg7374
(dp8765
g7700
I00
sg7701
I1
ssVRon
p8766
(dp8767
g7700
I00
sg7701
I1
sssg3210
(dp8768
sg7244
(dp8769
sg7246
(dp8770
VRon
p8771
(dp8772
g7700
I01
sg7701
I2
sssg7248
(dp8773
VHe'd
p8774
g8558
ssg7250
(dp8775
sg7252
(dp8776
sg7254
(dp8777
sg7256
(dp8778
g7531
(dp8779
g7700
I01
sg7701
I1
ssg7549
(dp8780
g7700
I01
sg7701
I1
sssg7258
(dp8781
VColin
p8782
g8539
ssg7260
(dp8783
VFilch
p8784
g8428
ssg3217
(dp8785
Vsharply
p8786
g8101
sg3929
(dp8787
g7700
I01
sg7701
I2
ssg8141
(dp8788
g7700
I00
sg7701
I1
ssVMr.
p8789
g8158
sg7489
(dp8790
g7700
I00
sg7701
I1
ssg1943
g8323
sg1415
g8202
sVslowly
p8791
(dp8792
g7700
I00
sg7701
I2
ssVlazily
p8793
g7855
sg7519
(dp8794
g7700
I01
sg7701
I20
ssg8155
g8692
sVHarry
p8795
(dp8796
g7700
I00
sg7701
I1
ssg6971
g8371
sg7527
(dp8797
g7700
I00
sg7701
I1
ssg7455
(dp8798
g7700
I01
sg7701
I1
ssg7405
(dp8799
g7700
I01
sg7701
I1
ssVimpatiently
p8800
g7965
sVbarely
p8801
(dp8802
g7700
I00
sg7701
I1
ssVPotter
p8803
g8391
sVloudly
p8804
(dp8805
g7700
I00
sg7701
I1
ssg6761
g7986
sg7223
g8736
ssg7263
(dp8806
VHarry
p8807
(dp8808
g7700
I01
sg7701
I1
sssg7265
(dp8809
sg7267
(dp8810
sg3379
(dp8811
VHagrid
p8812
g7959
sVRon
p8813
(dp8814
g7700
I00
sg7701
I1
ssVHarry
p8815
(dp8816
g7700
I00
sg7701
I1
sssg3384
(dp8817
sg7271
(dp8818
VSnape
p8819
(dp8820
g7700
I01
sg7701
I1
sssg7273
(dp8821
VMalfoy
p8822
g8802
sVHarry
p8823
(dp8824
g7700
I01
sg7701
I2
sssg7275
(dp8825
VRon
p8826
(dp8827
g7700
I01
sg7701
I1
ssVHarry
p8828
(dp8829
g7700
I01
sg7701
I1
sssg7277
(dp8830
VThomas
p8831
g7753
sVHagrid
p8832
g7950
sVDean
p8833
(dp8834
g7700
I00
sg7701
I1
ssVRon
p8835
(dp8836
g7700
I00
sg7701
I2
ssVDumbledore
p8837
(dp8838
g7700
I00
sg7701
I1
ssVMalfoy
p8839
g8805
sVPercy
p8840
g7978
sVNick
p8841
g8031
sVHarry
p8842
(dp8843
g7700
I00
sg7701
I1
ssVLockhart
p8844
g8717
ssg3389
(dp8845
sg7280
(dp8846
sg7282
(dp8847
VGryffindor
p8848
g8190
sVjust
p8849
(dp8850
g7700
I00
sg7701
I1
ssVHouse
p8851
(dp8852
g7700
I00
sg7701
I2
ssg6622
g7699
sg7450
(dp8853
g7700
I01
sg7701
I8
ssg3421
(dp8854
g7700
I00
sg7701
I1
ssg7544
(dp8855
g7700
I01
sg7701
I1
ssVever
p8856
g7869
ssg7284
(dp8857
sg7286
(dp8858
sg7288
(dp8859
sg7290
(dp8860
sg7292
(dp8861
VPatrick
p8862
g8515
sg7204
g8700
sg7367
(dp8863
g7700
I01
sg7701
I1
sssg7294
(dp8864
sg7296
(dp8865
sg3421
(dp8866
VMcGonagall
p8867
g8339
sVProfessor
p8868
g7888
sVHarry
p8869
(dp8870
g7700
I01
sg7701
I2
ssVSlytherin
p8871
g8854
ssg7299
(dp8872
g519
g7865
sg7593
(dp8873
g7700
I01
sg7701
I3
ssg7670
(dp8874
g7700
I01
sg7701
I3
sssg7301
(dp8875
VDumbledore
p8876
(dp8877
g7700
I01
sg7701
I1
ssVGinny
p8878
(dp8879
g7700
I01
sg7701
I1
sssg7303
(dp8880
sg7305
(dp8881
VErnie
p8882
g8129
sg7429
(dp8883
g7700
I00
sg7701
I1
ssVHarry
p8884
(dp8885
g7700
I00
sg7701
I1
sssg7307
(dp8886
sg3464
(dp8887
VDumbledore
p8888
(dp8889
g7700
I01
sg7701
I1
sssg7310
(dp8890
sg7312
(dp8891
sg3467
(dp8892
sg7315
(dp8893
sg7317
(dp8894
VProfessor
p8895
g7892
sVFlitwick
p8896
(dp8897
g7700
I01
sg7701
I1
sssg3470
(dp8898
g6777
g8029
sVLockhart
p8899
g8714
sVHermione
p8900
g8228
sVRon
p8901
(dp8902
g7700
I00
sg7701
I2
ssVHarry
p8903
(dp8904
g7700
I01
sg7701
I10
sssg7320
(dp8905
VColin
p8906
g8538
ssg3495
(dp8907
VBinns
p8908
g8266
sVRon
p8909
(dp8910
g7700
I00
sg7701
I2
ssVProfessor
p8911
g7897
sVMalfoy
p8912
g8792
sVMr.
p8913
g8152
sVHermione
p8914
g8230
sVHarry
p8915
(dp8916
g7700
I00
sg7701
I1
ssVAragog
p8917
g8453
ssg7323
(dp8918
sg7325
(dp8919
sg3505
(dp8920
sg7328
(dp8921
Vnow
p8922
g8360
ssg7330
(dp8923
sg3510
(dp8924
sg7333
(dp8925
g3833
(dp8926
g7700
I01
sg7701
I1
ssg6993
g8409
sValready
p8927
g8469
sVHagrid
p8928
g7947
sValways
p8929
g8380
sVProfessor
p8930
g7880
sVgently
p8931
g8554
sg7413
(dp8932
g7700
I01
sg7701
I1
ssVloudly
p8933
g8838
sVsimply
p8934
g8877
sVsharply
p8935
g8093
sVHarry
p8936
(dp8937
g7700
I00
sg7701
I1
ssVthoughtfully
p8938
g8483
sg3464
g8889
sg7379
(dp8939
g7700
I00
sg7701
I2
ssg6866
g8184
ssg7335
(dp8940
g7427
(dp8941
g7700
I01
sg7701
I1
sssg3513
(dp8942
sg7338
(dp8943
sg7340
(dp8944
sg7342
(dp8945
g6666
g7754
sg7752
g8834
sVSeamus
p8946
g8116
sVHarry
p8947
(dp8948
g7700
I00
sg7701
I1
sssg3548
(dp8949
sg7345
(dp8950
VDobby
p8951
g8276
ssg7347
(dp8952
g7174
g8640
ssg7349
(dp8953
sg7351
(dp8954
sg7353
(dp8955
sg7355
(dp8956
VGranger
p8957
g8675
ssg7357
(dp8958
g6631
g7708
sg7632
(dp8959
g7700
I01
sg7701
I1
ssg7227
g8747
sVWeasley
p8960
g7814
sg6696
g7824
sVGranger
p8961
g8676
sg7417
(dp8962
g7700
I01
sg7701
I1
sssg7359
(dp8963
sg7361
(dp8964
sg7363
(dp8965
g7110
g8557
sVMr.
p8966
g8142
sVDobby
p8967
g8278
sVMalfoy
p8968
g8788
sVHarry
p8969
(dp8970
g7700
I00
sg7701
I2
sssg7365
(dp8971
sg7367
(dp8972
VSir
p8973
g8863
ssg7369
(dp8974
sg7371
(dp8975
g6963
g8355
ssg3594
(dp8976
g7102
g8544
sg6775
g8019
sVenthusiastically
p8977
(dp8978
g7700
I00
sg7701
I1
ssVFlint
p8979
(dp8980
g7700
I00
sg7701
I1
ssVexcitedly
p8981
g8668
sVheartily
p8982
g8680
sVbriskly
p8983
g8625
ssg7374
(dp8984
g3205
g8765
sVnever
p8985
g7914
ssg1230
(dp8986
g6846
g8133
ssg2521
(dp8987
sg3458
(dp8988
sg7379
(dp8989
g7333
g8939
ssg7381
(dp8990
sg7383
(dp8991
VRon
p8992
(dp8993
g7700
I01
sg7701
I1
sssg7385
(dp8994
g6408
(dp8995
g7700
I00
sg7701
I1
ssVProfessor
p8996
g7891
sVMcGonagall
p8997
g8338
sg7271
g8820
sg6717
g7853
sg7508
(dp8998
g7700
I00
sg7701
I2
ssVcoldly
p8999
(dp9000
g7700
I00
sg7701
I1
ssVLockhart
p9001
g8719
ssg3724
(dp9002
VHarry
p9003
(dp9004
g7700
I01
sg7701
I1
sssg7388
(dp9005
sg7390
(dp9006
VRon
p9007
(dp9008
g7700
I01
sg7701
I1
sssg7392
(dp9009
g7023
g8435
ssg7394
(dp9010
g7058
g8480
ssg7396
(dp9011
sg7398
(dp9012
g8164
g8398
sVRon
p9013
(dp9014
g7700
I00
sg7701
I1
ssg6786
g8048
ssg7400
(dp9015
VRon
p9016
(dp9017
g7700
I01
sg7701
I1
sssg3833
(dp9018
VDumbledore
p9019
g8926
ssg7403
(dp9020
VProfessor
p9021
g7901
sVMcGonagall
p9022
g8329
sVLockhart
p9023
g8707
sVRon
p9024
(dp9025
g7700
I01
sg7701
I3
ssVHarry
p9026
(dp9027
g7700
I00
sg7701
I2
sssg7405
(dp9028
VMr.
p9029
g8163
sVMalfoy
p9030
g8799
ssg7407
(dp9031
VRon
p9032
(dp9033
g7700
I01
sg7701
I1
ssVHarry
p9034
(dp9035
g7700
I01
sg7701
I1
sssg7409
(dp9036
sg7411
(dp9037
VHarry
p9038
(dp9039
g7700
I01
sg7701
I2
sssg7413
(dp9040
VProfessor
p9041
g7885
sVDumbledore
p9042
g8932
sVGoyle
p9043
g7833
ssg2531
(dp9044
sg3840
(dp9045
g7075
g8500
sVLongbottom
p9046
(dp9047
g7700
I00
sg7701
I1
sssg7417
(dp9048
VMiss
p9049
g8962
ssg3853
(dp9050
VI'd
p9051
g7744
sVSlytherin
p9052
g8850
sVGinny
p9053
(dp9054
g7700
I00
sg7701
I1
ssVColin
p9055
g8534
sVHarry
p9056
(dp9057
g7700
I00
sg7701
I1
sssg3860
(dp9058
VProfessor
p9059
g7877
sVMcGonagall
p9060
g8332
sVRon
p9061
(dp9062
g7700
I00
sg7701
I1
ssVHarry
p9063
(dp9064
g7700
I00
sg7701
I1
sssg7421
(dp9065
VRon
p9066
(dp9067
g7700
I01
sg7701
I1
ssg7588
(dp9068
g7700
I01
sg7701
I1
sssg4042
(dp9069
sg3582
(dp9070
sg7425
(dp9071
VHermione
p9072
g8222
ssg7427
(dp9073
g7335
g8941
sVRon
p9074
(dp9075
g7700
I01
sg7701
I1
sssg7429
(dp9076
VHufflepuff
p9077
g8883
ssg7431
(dp9078
sg7433
(dp9079
sg3397
(dp9080
sg7436
(dp9081
g6646
g7726
sVWood
p9082
g8980
ssg7438
(dp9083
VHarry
p9084
(dp9085
g7700
I01
sg7701
I1
sssg3889
(dp9086
g6908
g8283
ssg3892
(dp9087
sg7442
(dp9088
sg7444
(dp9089
sg7446
(dp9090
sg3894
(dp9091
VWood
p9092
g8978
sVHermione
p9093
g8249
sVRon
p9094
(dp9095
g7700
I00
sg7701
I1
sssg3909
(dp9096
VHarry
p9097
(dp9098
g7700
I01
sg7701
I1
sssg7450
(dp9099
VSlytherin
p9100
g8853
ssg2321
(dp9101
sg7453
(dp9102
sg7455
(dp9103
VMr.
p9104
g8162
sVWeasley
p9105
g7819
sVMalfoy
p9106
g8798
ssg7457
(dp9107
sg7459
(dp9108
sg7461
(dp9109
VHarry
p9110
(dp9111
g7700
I01
sg7701
I1
sssg1202
(dp9112
sg7464
(dp9113
VPercy
p9114
g7976
ssg7466
(dp9115
sg7468
(dp9116
g6814
g8086
ssg7470
(dp9117
VHarry
p9118
(dp9119
g7700
I01
sg7701
I1
sssg7472
(dp9120
sg7474
(dp9121
sg7476
(dp9122
VMr.
p9123
g8166
sg6748
g7962
ssg7478
(dp9124
Vdown
p9125
(dp9126
g7700
I00
sg7701
I1
ssVother
p9127
(dp9128
g7700
I00
sg7701
I2
sssg3925
(dp9129
sg7481
(dp9130
VProfessor
p9131
g7889
ssg3929
(dp9132
VMr.
p9133
g8140
sVMalfoy
p9134
g8787
ssg3932
(dp9135
g7098
g8535
sg7166
g8630
sVMr.
p9136
g8149
sg8536
g8580
sg7535
(dp9137
g7700
I00
sg7701
I1
sssg7485
(dp9138
VNick
p9139
g8025
sVHagrid
p9140
g7948
ssg4704
(dp9141
g6744
g7938
sVNorris
p9142
g8634
sVProfessor
p9143
g7882
sVMcGonagall
p9144
g8335
sVMason
p9145
(dp9146
g7700
I00
sg7701
I1
ssVFilch
p9147
g8430
sg7160
g8622
sVHarry
p9148
(dp9149
g7700
I00
sg7701
I1
ssVGinny
p9150
(dp9151
g7700
I00
sg7701
I1
ssVLockhart
p9152
g8712
sVDobby
p9153
g8280
ssg3950
(dp9154
VMr.
p9155
g8144
sg4704
g9146
ssg7489
(dp9156
VMalfoy
p9157
g8790
ssg7491
(dp9158
VHarry
p9159
(dp9160
g7700
I01
sg7701
I1
sssg7493
(dp9161
VFinch-Fletchley
p9162
g9047
sg6724
g7872
ssg7495
(dp9163
g393
g7834
sg7113
g8567
ssg7497
(dp9164
sg7499
(dp9165
g6884
g8204
ssg7501
(dp9166
sg3640
(dp9167
sg7504
(dp9168
sg7506
(dp9169
VMr.
p9170
g8150
ssg7508
(dp9171
g7385
g8998
ssg7510
(dp9172
sg7512
(dp9173
sg7514
(dp9174
sg7516
(dp9175
sg4034
(dp9176
sg7519
(dp9177
VMalfoy
p9178
g8794
ssg1156
(dp9179
sg7522
(dp9180
VProfessor
p9181
g7895
sg7672
(dp9182
g7700
I01
sg7701
I1
sssg7524
(dp9183
sg3829
(dp9184
sg7527
(dp9185
VMr.
p9186
g8161
sVSnape
p9187
g9000
sVHermione
p9188
g8246
sVMalfoy
p9189
g8797
ssg7529
(dp9190
sg7531
(dp9191
g7256
g8779
ssg7533
(dp9192
sg7535
(dp9193
VCreevey
p9194
g9137
sVnever
p9195
g7910
ssg7537
(dp9196
Vstill
p9197
g8321
sg4683
(dp9198
g7700
I01
sg7701
I1
ssVquietly
p9199
(dp9200
g7700
I00
sg7701
I1
ssg3175
g8742
sVFang
p9201
g8385
sVheavily
p9202
g9062
sVsuddenly
p9203
g8005
sVirritably
p9204
g9067
sg293
g7795
sg3180
g8754
sVgruffly
p9205
(dp9206
g7700
I01
sg7701
I1
ssg7383
g8993
sVgloomily
p9207
g8562
sVquickly
p9208
g8902
sVyet
p9209
g9075
sg701
g7711
sg7181
g8646
sVaway
p9210
g8767
sVMcGonagall
p9211
g8331
sg1418
g8212
sVFred
p9212
g8652
sVuncertainly
p9213
g8463
sg3495
g8910
sVexcitedly
p9214
g8671
sg1142
g8673
sVsuspiciously
p9215
(dp9216
g7700
I01
sg7701
I1
ssVdelightedly
p9217
g8526
sVnervously
p9218
g8440
sg7084
g8519
sg7390
g9008
sg7246
g8772
sg6582
(dp9219
g7700
I01
sg7701
I1
ssVangrily
p9220
g8014
sg3894
g9095
sVcuriously
p9221
(dp9222
g7700
I00
sg7701
I1
ssg6705
g7842
sg1424
g8251
sVsharply
p9223
g8095
sVHarry
p9224
(dp9225
g7700
I00
sg7701
I58
ssg6590
(dp9226
g7700
I01
sg7701
I1
ssg1172
g8112
sg7143
g8605
sg7674
(dp9227
g7700
I01
sg7701
I1
ssg7400
g9017
sVLockhart
p9228
g8709
sVabruptly
p9229
g8814
sVbrightly
p9230
(dp9231
g7700
I00
sg7701
I1
ssVdesperately
p9232
g8375
sg7403
g9025
sg7407
g9033
sg906
g7969
sg7275
g8827
sg7623
(dp9233
g7700
I01
sg7701
I3
ssVloudly
p9234
g8836
sVDear
p9235
g9014
ssg7539
(dp9236
sg4677
(dp9237
sg7542
(dp9238
sg7544
(dp9239
g7282
g8855
ssg7546
(dp9240
VVernon
p9241
g8071
ssg4680
(dp9242
VHarry
p9243
(dp9244
g7700
I01
sg7701
I1
sssg7549
(dp9245
g7256
g8780
ssg4683
(dp9246
VRon
p9247
g9198
ssg4686
(dp9248
VRon
p9249
g9200
sVHarry
p9250
(dp9251
g7700
I01
sg7701
I2
sssg7553
(dp9252
sg7555
(dp9253
VHouse
p9254
(dp9255
g7700
I01
sg7701
I2
sssg7557
(dp9256
sg7559
(dp9257
sg7561
(dp9258
sg7563
(dp9259
g7478
g9126
sg7217
g8731
ssg7565
(dp9260
sg7567
(dp9261
sg4024
(dp9262
VHarry
p9263
(dp9264
g7700
I01
sg7701
I1
sssg2324
(dp9265
VPomfrey
p9266
g7991
sVHermione
p9267
g8218
ssg7571
(dp9268
sg7573
(dp9269
VGinny
p9270
(dp9271
g7700
I01
sg7701
I1
sssg7575
(dp9272
VLockhart
p9273
g8710
ssg7577
(dp9274
g2499
g8552
ssg7579
(dp9275
sg4720
(dp9276
VHermione
p9277
g8241
ssg7582
(dp9278
Vagain
p9279
(dp9280
g7700
I00
sg7701
I1
ssVforever
p9281
g8610
sg2172
g8417
ssg7584
(dp9282
VDippet
p9283
g8176
sVRon
p9284
g9222
sVHarry
p9285
(dp9286
g7700
I00
sg7701
I1
sssg7586
(dp9287
sg7588
(dp9288
g4686
g9251
sg7199
g8694
sg3853
g9057
sg3860
g9064
sg6770
g8007
sg7411
g9039
sg2486
g8548
sg7421
g9068
sVback
p9289
g9149
sVforcefully
p9290
g8061
sVMalfoy
p9291
g8796
sg7461
g9111
sVfiercely
p9292
g8172
sg7470
g9119
sg7491
g9160
sg3184
g8757
sg2518
g8564
sg2301
g8485
sg7305
g8885
sValone
p9293
g8870
sVdarkly
p9294
g8448
sVmiserably
p9295
g8744
sg6827
g8109
sVagain
p9296
(dp9297
g7700
I01
sg7701
I2
ssg7181
g8648
sValso
p9298
g8593
sg4024
g9264
sg7617
(dp9299
g7700
I01
sg7701
I1
ssg2814
g8659
sg3470
g8904
sg1905
g8302
sVVernon
p9300
g8068
sVslowly
p9301
g8916
sg3724
g9004
sg7438
g9085
sg9215
(dp9302
g7700
I01
sg7701
I1
ssVabruptly
p9303
g8816
sg7071
g8495
sg2243
g8442
sVfuriously
p9304
g8214
sg7055
g8477
sg7080
g8512
sg1137
g8083
sVnever
p9305
g7918
sg696
g7921
sg1023
g8016
sg7664
(dp9306
g7700
I01
sg7701
I1
ssg7584
g9286
sVHermione
p9307
g8244
sg3909
g9098
sg7201
g8697
sg6738
g7930
sValmost
p9308
g8970
sg6969
g8366
sg2935
g8703
sg7016
g8425
sVnearly
p9309
g8688
sVincredulously
p9310
g9035
sg2028
g8377
sg7209
g8724
sVweakly
p9311
g9027
sVDean
p9312
g8948
sg3922
g8040
sVRon
p9313
g9225
sg7263
g8808
sg1707
g8270
sg7273
g8824
sg2033
g8397
sVthickly
p9314
g8829
sg7623
(dp9315
g7700
I01
sg7701
I3
ssg6986
g8403
sVloudly
p9316
g8843
sg7603
(dp9317
g7700
I01
sg7701
I1
ssg6740
g7933
sVDumbledore
p9318
g8937
sVGeorge
p9319
g7775
sg4680
g9244
sg6782
g8043
ssg6268
(dp9320
sg7591
(dp9321
sg7593
(dp9322
g7299
g8873
ssg64
(dp9323
sg7596
(dp9324
g7555
g9255
sg6870
g8187
sg6734
g7926
sVSlytherin
p9325
g8852
ssg7598
(dp9326
sg7600
(dp9327
sg6282
(dp9328
sg7603
(dp9329
VHermione
p9330
g8256
sVHarry
p9331
g9317
ssg7605
(dp9332
sg7607
(dp9333
sg7609
(dp9334
sg7611
(dp9335
VMyrtle
p9336
g8291
sVHermione
p9337
g8247
sVRon
p9338
g9231
ssg7613
(dp9339
g6852
g8138
sg6801
g8064
sVDudley
p9340
g8307
ssg7615
(dp9341
sg7617
(dp9342
VHarry
p9343
g9299
ssg7619
(dp9344
sg7621
(dp9345
sg7623
(dp9346
VFred
p9347
g8653
sVGeorge
p9348
g7781
sVRon
p9349
g9233
sVHarry
p9350
g9315
ssg7625
(dp9351
sg7627
(dp9352
g2286
g8470
sVjust
p9353
g9054
sVback
p9354
g9151
sg6672
g7759
sVWeasley
p9355
g7797
sVfinally
p9356
g7721
sg7301
g8879
sg7573
g9271
ssg6405
(dp9357
VNick
p9358
g8021
ssg6408
(dp9359
VChamber
p9360
g9280
sVHogwarts
p9361
g8663
sVSnape
p9362
g8995
sVHarry
p9363
g9297
ssg6415
(dp9364
VLockhart
p9365
g8721
ssg7632
(dp9366
VMiss
p9367
g8959
ssg7634
(dp9368
sg6418
(dp9369
sg7637
(dp9370
VGryffindors
p9371
g9128
sVBludger
p9372
g7936
sVSlytherins
p9373
g8299
sVPotter
p9374
g8395
ssg7639
(dp9375
sg6433
(dp9376
VHermione
p9377
g8234
sVRon
p9378
g9216
sVHarry
p9379
g9302
ssg7642
(dp9380
sg7644
(dp9381
sg7646
(dp9382
sg7648
(dp9383
sg7650
(dp9384
g7684
(dp9385
g7700
I01
sg7701
I1
ssg2541
g8597
ssg7652
(dp9386
sg7654
(dp9387
sg7656
(dp9388
sg4027
(dp9389
sg6582
(dp9390
VRon
p9391
g9219
ssg7660
(dp9392
sg7662
(dp9393
sg7664
(dp9394
VHarry
p9395
g9306
ssg7666
(dp9396
sg6585
(dp9397
sg6590
(dp9398
VRon
p9399
g9226
ssg7670
(dp9400
VArthur
p9401
g7924
sVMuggle
p9402
g8874
sVWeasley
p9403
g7799
ssg7672
(dp9404
g7522
g9182
sVProfessor
p9405
g7899
sg7317
g8897
ssg7674
(dp9406
VRon
p9407
g9227
ssg7676
(dp9408
sg7678
(dp9409
g6746
g7949
sVRon
p9410
g9206
ssg7680
(dp9411
sg7682
(dp9412
sg7684
(dp9413
VGreat
p9414
g9385
ssg6603
(dp9415
sg6605
(dp9416
ssS'graph'
p9417
(dp9418
sS'adjlist_dict_factory'
p9419
g7691
sS'adj'
p9420
g7694
sbg6607
(g6608
g6612
Ntp9421
Rp9422
(dp9423
g6616
(dp9424
g1
(dp9425
sg6620
(dp9426
sg6622
(dp9427
sg6624
(dp9428
sg6626
(dp9429
sg6628
(dp9430
sg3
(dp9431
sVBrown
p9432
(dp9433
sg6734
(dp9434
sg6634
(dp9435
sVMalfoys
p9436
(dp9437
sg6638
(dp9438
sg24
(dp9439
sg6643
(dp9440
sg31
(dp9441
sg6646
(dp9442
sg6648
(dp9443
sg6650
(dp9444
sg6652
(dp9445
sg6832
(dp9446
sg35
(dp9447
sg37
(dp9448
sg6658
(dp9449
sg124
(dp9450
sg6662
(dp9451
sg6664
(dp9452
sg6666
(dp9453
sg6668
(dp9454
sg6670
(dp9455
sg6672
(dp9456
sg6674
(dp9457
sg6676
(dp9458
sg150
(dp9459
sg6680
(dp9460
sg166
(dp9461
sg186
(dp9462
sg6685
(dp9463
sg6687
(dp9464
sg6689
(dp9465
sg282
(dp9466
sg293
(dp9467
sg6694
(dp9468
sg6696
(dp9469
sg6698
(dp9470
sg6700
(dp9471
sg393
(dp9472
sg6740
(dp9473
sg434
(dp9474
sg6705
(dp9475
sg461
(dp9476
sg6267
(dp9477
sg6709
(dp9478
sg501
(dp9479
sg6714
(dp9480
sg516
(dp9481
sg6717
(dp9482
sg6719
(dp9483
sg519
(dp9484
sg6722
(dp9485
sg527
(dp9486
sg6726
(dp9487
sg568
(dp9488
sg682
(dp9489
sg696
(dp9490
sVArthur
p9491
(dp9492
sg701
(dp9493
sg6736
(dp9494
sg6738
(dp9495
sg7029
(dp9496
sg6742
(dp9497
sg7181
(dp9498
sg704
(dp9499
sg754
(dp9500
sg6748
(dp9501
sg906
(dp9502
sg3460
(dp9503
sg6752
(dp9504
sg913
(dp9505
sg6755
(dp9506
sg6757
(dp9507
sg915
(dp9508
sg1067
(dp9509
sg6763
(dp9510
sg2329
(dp9511
sg989
(dp9512
sg6768
(dp9513
sg6770
(dp9514
sg7183
(dp9515
sg1023
(dp9516
sg6775
(dp9517
sg1033
(dp9518
sg6779
(dp9519
sg7466
(dp9520
sg6782
(dp9521
sg6784
(dp9522
sg1054
(dp9523
sg6788
(dp9524
sg1075
(dp9525
sg6791
(dp9526
sg6793
(dp9527
sg1077
(dp9528
sg6796
(dp9529
sg6798
(dp9530
sg7491
(dp9531
sg1087
(dp9532
sg1089
(dp9533
sg1113
(dp9534
sg6805
(dp9535
sg6807
(dp9536
sg6809
(dp9537
sg1120
(dp9538
sg1137
(dp9539
sg1142
(dp9540
sg6814
(dp9541
sg6816
(dp9542
sg6818
(dp9543
sg1158
(dp9544
sg6820
(dp9545
sg6822
(dp9546
sg1160
(dp9547
sg6825
(dp9548
sg6827
(dp9549
sg1172
(dp9550
sg1175
(dp9551
sg6654
(dp9552
sg6834
(dp9553
sg1202
(dp9554
sg1206
(dp9555
sg7039
(dp9556
sg1209
(dp9557
sg6841
(dp9558
sg1215
(dp9559
sg1230
(dp9560
sg1233
(dp9561
sg6850
(dp9562
sg1254
(dp9563
sg6839
(dp9564
sg1326
(dp9565
sg6856
(dp9566
sg7113
(dp9567
sVLord
p9568
(dp9569
sg7539
(dp9570
sg6862
(dp9571
sg6864
(dp9572
sg6866
(dp9573
sg6868
(dp9574
sg1336
(dp9575
sg6872
(dp9576
sg1903
(dp9577
sg6875
(dp9578
sg6877
(dp9579
sg6879
(dp9580
sg1398
(dp9581
sg1415
(dp9582
sg6884
(dp9583
sg6886
(dp9584
sg6888
(dp9585
sg1418
(dp9586
sg6891
(dp9587
sg1834
(dp9588
sg1424
(dp9589
sg6896
(dp9590
sg1423
(dp9591
sg1696
(dp9592
sg6900
(dp9593
sg6902
(dp9594
sg1707
(dp9595
sg6281
(dp9596
sg6906
(dp9597
sg1710
(dp9598
sg6910
(dp9599
sg1837
(dp9600
sg6914
(dp9601
sVSlytherins
p9602
(dp9603
sg1905
(dp9604
sg6919
(dp9605
sg1908
(dp9606
sg6923
(dp9607
sg6925
(dp9608
sg6927
(dp9609
sg6929
(dp9610
sg6931
(dp9611
sg6933
(dp9612
sg1943
(dp9613
sg6936
(dp9614
sg1952
(dp9615
sg1955
(dp9616
sg6942
(dp9617
sg6944
(dp9618
sg2006
(dp9619
sg2012
(dp9620
sg7361
(dp9621
sg6949
(dp9622
sg6951
(dp9623
sg6953
(dp9624
sg6955
(dp9625
sg3509
(dp9626
sg6958
(dp9627
sg6960
(dp9628
sg2026
(dp9629
sg6963
(dp9630
sg6965
(dp9631
sg6967
(dp9632
sg6969
(dp9633
sg6971
(dp9634
sg6973
(dp9635
sg2028
(dp9636
sg6976
(dp9637
sg6980
(dp9638
sg2033
(dp9639
sg2158
(dp9640
sg6984
(dp9641
sg6986
(dp9642
sg6988
(dp9643
sg6990
(dp9644
sg2167
(dp9645
sg7559
(dp9646
sg6995
(dp9647
sg6997
(dp9648
sg6999
(dp9649
sg7003
(dp9650
sg7005
(dp9651
sg2172
(dp9652
sg7008
(dp9653
sg7010
(dp9654
sg7012
(dp9655
sg7014
(dp9656
sg7016
(dp9657
sg2178
(dp9658
sg7019
(dp9659
sg7021
(dp9660
sg7023
(dp9661
sg7025
(dp9662
sg2243
(dp9663
sg2249
(dp9664
sg7176
(dp9665
sg2257
(dp9666
sg7033
(dp9667
sg7035
(dp9668
sVGringotts
p9669
(dp9670
sg7137
(dp9671
sg3442
(dp9672
sg2281
(dp9673
sg7043
(dp9674
sg7045
(dp9675
sg2284
(dp9676
sg2286
(dp9677
sg2289
(dp9678
sg7053
(dp9679
sg7055
(dp9680
sg2293
(dp9681
sg7001
(dp9682
sg2301
(dp9683
sg7067
(dp9684
sg2304
(dp9685
sg7062
(dp9686
sg2309
(dp9687
sg7065
(dp9688
sg2321
(dp9689
sg2324
(dp9690
sg7069
(dp9691
sg7071
(dp9692
sg7073
(dp9693
sg2356
(dp9694
sg7077
(dp9695
sg2387
(dp9696
sg7080
(dp9697
sg8862
(dp9698
sg7084
(dp9699
sg7088
(dp9700
sg2389
(dp9701
sg7091
(dp9702
sg7093
(dp9703
sg2392
(dp9704
sVMacmillan
p9705
(dp9706
sg2394
(dp9707
sg2431
(dp9708
sg2434
(dp9709
sVOliver
p9710
(dp9711
sg2486
(dp9712
sg7105
(dp9713
sg2492
(dp9714
sg2499
(dp9715
sg2502
(dp9716
sg2509
(dp9717
sg2518
(dp9718
sg2521
(dp9719
sg2523
(dp9720
sg7116
(dp9721
sg2525
(dp9722
sg2528
(dp9723
sg2531
(dp9724
sg7123
(dp9725
sVAlicia
p9726
(dp9727
sg7127
(dp9728
sg7129
(dp9729
sg2537
(dp9730
sg7132
(dp9731
sg2541
(dp9732
sg7135
(dp9733
sg7139
(dp9734
sg7141
(dp9735
sg7143
(dp9736
sg3463
(dp9737
sg1836
(dp9738
sg7147
(dp9739
sg7149
(dp9740
sg7151
(dp9741
sg2580
(dp9742
sg7154
(dp9743
sg7156
(dp9744
sg7158
(dp9745
sg2585
(dp9746
sg7162
(dp9747
sg7164
(dp9748
sg2594
(dp9749
sg7168
(dp9750
sg2634
(dp9751
sg7171
(dp9752
sg2638
(dp9753
sg2653
(dp9754
sg7178
(dp9755
sg1335
(dp9756
sg2678
(dp9757
sg6772
(dp9758
sg2706
(dp9759
sg2814
(dp9760
sg2822
(dp9761
sg7190
(dp9762
sg2887
(dp9763
sg2893
(dp9764
sg2910
(dp9765
sg1835
(dp9766
sg7421
(dp9767
sg2913
(dp9768
sg2932
(dp9769
sg7199
(dp9770
sg7201
(dp9771
sg3488
(dp9772
sg7204
(dp9773
sg2935
(dp9774
sg2938
(dp9775
sg7209
(dp9776
sg7211
(dp9777
sg7213
(dp9778
sg7215
(dp9779
sg3131
(dp9780
sg7219
(dp9781
sg7221
(dp9782
sg3150
(dp9783
sg7238
(dp9784
sg3175
(dp9785
sg7227
(dp9786
sg7229
(dp9787
sg7231
(dp9788
sg3180
(dp9789
sg3184
(dp9790
sg7118
(dp9791
sg7236
(dp9792
sg3187
(dp9793
sg3205
(dp9794
sg3210
(dp9795
sg7244
(dp9796
sg3741
(dp9797
sg7246
(dp9798
sg7248
(dp9799
sg7250
(dp9800
sg7252
(dp9801
sg7254
(dp9802
sg7256
(dp9803
sg7258
(dp9804
sg2236
(dp9805
sg3217
(dp9806
sg7263
(dp9807
sg7265
(dp9808
sg7267
(dp9809
sg7400
(dp9810
sg3379
(dp9811
sg3384
(dp9812
sg7271
(dp9813
sg7273
(dp9814
sg7275
(dp9815
sg7277
(dp9816
sg3389
(dp9817
sg7280
(dp9818
sg7396
(dp9819
sg7284
(dp9820
sg7609
(dp9821
sg7288
(dp9822
sg3397
(dp9823
sg7294
(dp9824
sg7296
(dp9825
sg3421
(dp9826
sg3426
(dp9827
sg7470
(dp9828
sg7303
(dp9829
sVHufflepuff
p9830
(dp9831
sg7307
(dp9832
sg3464
(dp9833
sg7310
(dp9834
sg7312
(dp9835
sg3467
(dp9836
sg7315
(dp9837
sg7317
(dp9838
sg3470
(dp9839
sg7320
(dp9840
sg3495
(dp9841
sg7323
(dp9842
sg7325
(dp9843
sg3505
(dp9844
sVPince
p9845
(dp9846
sg7330
(dp9847
sg3510
(dp9848
sg7438
(dp9849
sVApparate
p9850
(dp9851
sg3513
(dp9852
sg7338
(dp9853
sg7340
(dp9854
sg3515
(dp9855
sg3539
(dp9856
sg3548
(dp9857
sg7345
(dp9858
sg3551
(dp9859
sg7349
(dp9860
sg7351
(dp9861
sg7353
(dp9862
sVMudblood
p9863
(dp9864
sVMiss
p9865
(dp9866
sg7359
(dp9867
sg6712
(dp9868
sg7363
(dp9869
sg7365
(dp9870
sg7367
(dp9871
sg7369
(dp9872
sg3587
(dp9873
sg3594
(dp9874
sg749
(dp9875
sg6844
(dp9876
sg6848
(dp9877
sg3458
(dp9878
sg3632
(dp9879
sg7381
(dp9880
sg7383
(dp9881
sg3641
(dp9882
sg3724
(dp9883
sg7388
(dp9884
sg7390
(dp9885
sg3727
(dp9886
sg3733
(dp9887
sg3743
(dp9888
sg6761
(dp9889
sg3829
(dp9890
sg3833
(dp9891
sg7403
(dp9892
sg7405
(dp9893
sg7407
(dp9894
sg7409
(dp9895
sg7411
(dp9896
sg7413
(dp9897
sg3836
(dp9898
sg3840
(dp9899
sg7417
(dp9900
sg3853
(dp9901
sg3860
(dp9902
sg3452
(dp9903
sg4042
(dp9904
sg3582
(dp9905
sg7425
(dp9906
sg7427
(dp9907
sg3870
(dp9908
sg7433
(dp9909
sg7290
(dp9910
sg3876
(dp9911
sg7431
(dp9912
sg3889
(dp9913
sg3892
(dp9914
sg7442
(dp9915
sg7444
(dp9916
sg7446
(dp9917
sg3894
(dp9918
sg3909
(dp9919
sg3912
(dp9920
sg7453
(dp9921
sg7455
(dp9922
sg7457
(dp9923
sg7459
(dp9924
sg7461
(dp9925
sg6641
(dp9926
sg7464
(dp9927
sg3922
(dp9928
sVLondon
p9929
(dp9930
sg7301
(dp9931
sg7472
(dp9932
sg7474
(dp9933
sg7476
(dp9934
sVGryffindors
p9935
(dp9936
sg3925
(dp9937
sg7481
(dp9938
sg3929
(dp9939
sg3932
(dp9940
sg7485
(dp9941
sg7579
(dp9942
sg3950
(dp9943
sg3967
(dp9944
sg7607
(dp9945
sg7493
(dp9946
sg3972
(dp9947
sg7497
(dp9948
sg4010
(dp9949
sg7501
(dp9950
sg3640
(dp9951
sg7504
(dp9952
sg4024
(dp9953
sg7506
(dp9954
sVSeverus
p9955
(dp9956
sg7510
(dp9957
sg7512
(dp9958
sg4027
(dp9959
sg7516
(dp9960
sg4034
(dp9961
sg4043
(dp9962
sg1156
(dp9963
sg7522
(dp9964
sg7524
(dp9965
sg7527
(dp9966
sg7529
(dp9967
sg4072
(dp9968
sg7533
(dp9969
sg4076
(dp9970
sg4084
(dp9971
sg6860
(dp9972
sg4677
(dp9973
sg7542
(dp9974
sVCaptain
p9975
(dp9976
sg7546
(dp9977
sg4680
(dp9978
sVKatie
p9979
(dp9980
sg4683
(dp9981
sg4686
(dp9982
sg7553
(dp9983
sg7555
(dp9984
sg7557
(dp9985
sg6993
(dp9986
sg7561
(dp9987
sVdown
p9988
(dp9989
sg7565
(dp9990
sg7567
(dp9991
sg7086
(dp9992
sg7051
(dp9993
sg7571
(dp9994
sg7573
(dp9995
sg7575
(dp9996
sg4694
(dp9997
sg4704
(dp9998
sg4720
(dp9999
sg4723
(dp10000
sg7584
(dp10001
sg7586
(dp10002
sg4798
(dp10003
sg6268
(dp10004
sg7591
(dp10005
sg7593
(dp10006
sg64
(dp10007
sg6270
(dp10008
sg7598
(dp10009
sg7600
(dp10010
sg6282
(dp10011
sg7603
(dp10012
sg7605
(dp10013
sg6938
(dp10014
sg7286
(dp10015
sVbrightly
p10016
(dp10017
sg7613
(dp10018
sg7615
(dp10019
sg7617
(dp10020
sg7619
(dp10021
sg7621
(dp10022
sg7623
(dp10023
sg7625
(dp10024
sg6302
(dp10025
sg6405
(dp10026
sg6408
(dp10027
sg6415
(dp10028
sg7632
(dp10029
sg7634
(dp10030
sg6418
(dp10031
sg6425
(dp10032
sg7639
(dp10033
sg6433
(dp10034
sg7642
(dp10035
sg7644
(dp10036
sg7646
(dp10037
sg7648
(dp10038
sg6436
(dp10039
sg6450
(dp10040
sg7652
(dp10041
sg7654
(dp10042
sg7656
(dp10043
sg7514
(dp10044
sg6582
(dp10045
sg7660
(dp10046
sg7662
(dp10047
sg7664
(dp10048
sg7666
(dp10049
sg6585
(dp10050
sg6590
(dp10051
sg7670
(dp10052
sg6593
(dp10053
sg7674
(dp10054
sg6600
(dp10055
sg7676
(dp10056
sg7678
(dp10057
sg7680
(dp10058
sg7682
(dp10059
sg7684
(dp10060
sg6603
(dp10061
sg6605
(dp10062
ssg7688
g7691
sg7692
g7691
sg7693
(dp10063
g1
(dp10064
sg6620
(dp10065
g166
(dp10066
ssg6622
(dp10067
sg6624
(dp10068
sg6626
(dp10069
sg6628
(dp10070
sg3
(dp10071
sg9432
(dp10072
sg6734
(dp10073
sg6634
(dp10074
sg9436
(dp10075
g3217
(dp10076
ssg6638
(dp10077
sg24
(dp10078
g6805
(dp10079
ssg6643
(dp10080
sg31
(dp10081
sg6646
(dp10082
sg6648
(dp10083
sg6650
(dp10084
sg6652
(dp10085
sg6832
(dp10086
sg35
(dp10087
sg37
(dp10088
g64
(dp10089
ssg6658
(dp10090
sg124
(dp10091
sg6662
(dp10092
sg6664
(dp10093
sg6666
(dp10094
sg6668
(dp10095
g293
(dp10096
ssg6670
(dp10097
sg6672
(dp10098
sg6674
(dp10099
sg6676
(dp10100
sg150
(dp10101
sg6680
(dp10102
sg166
(dp10103
g6620
g10066
ssg186
(dp10104
sg6685
(dp10105
sg6687
(dp10106
sg6689
(dp10107
sg282
(dp10108
sg293
(dp10109
g6668
g10096
ssg6694
(dp10110
sg6696
(dp10111
sg6698
(dp10112
sg6700
(dp10113
sg393
(dp10114
sg6740
(dp10115
sg434
(dp10116
sg6705
(dp10117
sg461
(dp10118
sg6267
(dp10119
g4798
(dp10120
ssg6709
(dp10121
sg501
(dp10122
g9863
(dp10123
ssg6714
(dp10124
sg516
(dp10125
sg6717
(dp10126
sg6719
(dp10127
sg519
(dp10128
sg6722
(dp10129
g7265
(dp10130
ssg527
(dp10131
sg6726
(dp10132
sg568
(dp10133
sg682
(dp10134
sg696
(dp10135
sg9491
(dp10136
sg701
(dp10137
sg6736
(dp10138
sg6738
(dp10139
sg7029
(dp10140
sg6742
(dp10141
sg7181
(dp10142
sg704
(dp10143
g749
(dp10144
ssg754
(dp10145
sg6748
(dp10146
sg906
(dp10147
sg3460
(dp10148
g3426
(dp10149
sg3458
(dp10150
ssg6752
(dp10151
g7600
(dp10152
ssg913
(dp10153
sg6755
(dp10154
sg6757
(dp10155
sg915
(dp10156
sg1067
(dp10157
sg6763
(dp10158
sg2329
(dp10159
g2324
(dp10160
ssg989
(dp10161
sg6768
(dp10162
sg6770
(dp10163
sg7183
(dp10164
sg1023
(dp10165
sg6775
(dp10166
sg1033
(dp10167
sg6779
(dp10168
sg7466
(dp10169
sg6782
(dp10170
sg6784
(dp10171
sg1054
(dp10172
sg6788
(dp10173
sg1075
(dp10174
sg6791
(dp10175
g7666
(dp10176
sg7682
(dp10177
ssg6793
(dp10178
sg1077
(dp10179
sg6796
(dp10180
sg6798
(dp10181
sg7491
(dp10182
sg1087
(dp10183
sg1089
(dp10184
sg1113
(dp10185
g7033
(dp10186
ssg6805
(dp10187
g24
g10079
ssg6807
(dp10188
sg6809
(dp10189
sg1120
(dp10190
sg1137
(dp10191
sg1142
(dp10192
g6712
(dp10193
sg1156
(dp10194
ssg6814
(dp10195
sg6816
(dp10196
sg6818
(dp10197
sg1158
(dp10198
sg6820
(dp10199
sg6822
(dp10200
sg1160
(dp10201
sg6825
(dp10202
sg6827
(dp10203
sg1172
(dp10204
sg1175
(dp10205
sg6654
(dp10206
sg6834
(dp10207
sg1202
(dp10208
sg1206
(dp10209
sg7039
(dp10210
sg1209
(dp10211
sg6841
(dp10212
sg1215
(dp10213
sg1230
(dp10214
sg1233
(dp10215
sg6850
(dp10216
sg1254
(dp10217
sg6839
(dp10218
sg1326
(dp10219
g1335
(dp10220
ssg6856
(dp10221
sg7113
(dp10222
sg9568
(dp10223
sg7539
(dp10224
sg6862
(dp10225
sg6864
(dp10226
sg6866
(dp10227
sg6868
(dp10228
sg1336
(dp10229
g9935
(dp10230
ssg6872
(dp10231
sg1903
(dp10232
g1837
(dp10233
ssg6875
(dp10234
sg6877
(dp10235
sg6879
(dp10236
sg1398
(dp10237
sg1415
(dp10238
sg6884
(dp10239
sg6886
(dp10240
sg6888
(dp10241
sg1418
(dp10242
g1423
(dp10243
ssg6891
(dp10244
sg1834
(dp10245
g1710
(dp10246
ssg1424
(dp10247
sg6896
(dp10248
sg1423
(dp10249
g1418
g10243
ssg1696
(dp10250
sg6900
(dp10251
sg6902
(dp10252
sg1707
(dp10253
sg6281
(dp10254
g6270
(dp10255
ssg6906
(dp10256
sg1710
(dp10257
g1835
(dp10258
sg1834
g10246
sg1836
(dp10259
ssg6910
(dp10260
sg1837
(dp10261
g1903
g10233
ssg6914
(dp10262
sg9602
(dp10263
g3743
(dp10264
ssg1905
(dp10265
sg6919
(dp10266
g7244
(dp10267
ssg1908
(dp10268
sg6923
(dp10269
sg6925
(dp10270
sg6927
(dp10271
sg6929
(dp10272
sg6931
(dp10273
sg6933
(dp10274
sg1943
(dp10275
sg6936
(dp10276
g2822
(dp10277
ssg1952
(dp10278
sg1955
(dp10279
sg6942
(dp10280
sg6944
(dp10281
sg2006
(dp10282
sg2012
(dp10283
sg7361
(dp10284
sg6949
(dp10285
sg6951
(dp10286
sg6953
(dp10287
sg6955
(dp10288
sg3509
(dp10289
g3505
(dp10290
ssg6958
(dp10291
sg6960
(dp10292
sg2026
(dp10293
sg6963
(dp10294
sg6965
(dp10295
sg6967
(dp10296
sg6969
(dp10297
sg6971
(dp10298
sg6973
(dp10299
sg2028
(dp10300
sg6976
(dp10301
sg6980
(dp10302
g3950
(dp10303
ssg2033
(dp10304
sg2158
(dp10305
sg6984
(dp10306
sg6986
(dp10307
sg6988
(dp10308
sg6990
(dp10309
sg2167
(dp10310
sg7559
(dp10311
g7325
(dp10312
ssg6995
(dp10313
sg6997
(dp10314
sg6999
(dp10315
sg7003
(dp10316
sg7005
(dp10317
sg2172
(dp10318
sg7008
(dp10319
sg7010
(dp10320
sg7012
(dp10321
sg7014
(dp10322
sg7016
(dp10323
sg2178
(dp10324
sg7019
(dp10325
sg7021
(dp10326
sg7023
(dp10327
sg7025
(dp10328
sg2243
(dp10329
sg2249
(dp10330
sg7176
(dp10331
sg2257
(dp10332
sg7033
(dp10333
g1113
g10186
ssg7035
(dp10334
sg9669
(dp10335
sg7137
(dp10336
sg3442
(dp10337
g3426
(dp10338
ssg2281
(dp10339
sg7043
(dp10340
sg7045
(dp10341
sg2284
(dp10342
sg2286
(dp10343
sg2289
(dp10344
sg7053
(dp10345
sg7055
(dp10346
sg2293
(dp10347
sg7001
(dp10348
sg2301
(dp10349
sg7067
(dp10350
sg2304
(dp10351
sg7062
(dp10352
sg2309
(dp10353
sg7065
(dp10354
sg2321
(dp10355
sg2324
(dp10356
g2329
g10160
ssg7069
(dp10357
sg7071
(dp10358
sg7073
(dp10359
sg2356
(dp10360
sg7077
(dp10361
sg2387
(dp10362
sg7080
(dp10363
sg8862
(dp10364
sg7084
(dp10365
sg7088
(dp10366
sg2389
(dp10367
sg7091
(dp10368
sg7093
(dp10369
sg2392
(dp10370
sg9705
(dp10371
sg2394
(dp10372
sg2431
(dp10373
sg2434
(dp10374
g7613
(dp10375
ssg9710
(dp10376
sg2486
(dp10377
sg7105
(dp10378
sg2492
(dp10379
sg2499
(dp10380
sg2502
(dp10381
sg2509
(dp10382
sg2518
(dp10383
sg2521
(dp10384
sg2523
(dp10385
sg7116
(dp10386
sg2525
(dp10387
sg2528
(dp10388
sg2531
(dp10389
sg7123
(dp10390
sg9726
(dp10391
sg7127
(dp10392
sg7129
(dp10393
sg2537
(dp10394
sg7132
(dp10395
sg2541
(dp10396
g7349
(dp10397
ssg7135
(dp10398
sg7139
(dp10399
sg7141
(dp10400
sg7143
(dp10401
sg3463
(dp10402
g3426
(dp10403
ssg1836
(dp10404
g1710
g10259
ssg7147
(dp10405
sg7149
(dp10406
sg7151
(dp10407
sg2580
(dp10408
sg7154
(dp10409
sg7156
(dp10410
sg7158
(dp10411
sg2585
(dp10412
sg7162
(dp10413
sg7164
(dp10414
sg2594
(dp10415
sg7168
(dp10416
sg2634
(dp10417
sg7171
(dp10418
sg2638
(dp10419
sg2653
(dp10420
sg7178
(dp10421
sg1335
(dp10422
g1326
g10220
ssg2678
(dp10423
sg6772
(dp10424
sg2706
(dp10425
sg2814
(dp10426
sg2822
(dp10427
g6936
g10277
ssg7190
(dp10428
sg2887
(dp10429
sg2893
(dp10430
sg2910
(dp10431
sg1835
(dp10432
g1710
g10258
ssg7421
(dp10433
sg2913
(dp10434
sg2932
(dp10435
sg7199
(dp10436
sg7201
(dp10437
sg3488
(dp10438
g3470
(dp10439
ssg7204
(dp10440
sg2935
(dp10441
sg2938
(dp10442
g7542
(dp10443
ssg7209
(dp10444
sg7211
(dp10445
sg7213
(dp10446
sg7215
(dp10447
sg3131
(dp10448
sg7219
(dp10449
sg7221
(dp10450
sg3150
(dp10451
sg7238
(dp10452
sg3175
(dp10453
sg7227
(dp10454
g1156
(dp10455
ssg7229
(dp10456
sg7231
(dp10457
sg3180
(dp10458
sg3184
(dp10459
sg7118
(dp10460
sg7236
(dp10461
sg3187
(dp10462
sg3205
(dp10463
sg3210
(dp10464
sg7244
(dp10465
g6919
g10267
ssg3741
(dp10466
sg7246
(dp10467
sg7248
(dp10468
sg7250
(dp10469
sg7252
(dp10470
sg7254
(dp10471
sg7256
(dp10472
sg7258
(dp10473
sg2236
(dp10474
sg3217
(dp10475
g9436
g10076
ssg7263
(dp10476
sg7265
(dp10477
g6722
g10130
ssg7267
(dp10478
sg7400
(dp10479
sg3379
(dp10480
sg3384
(dp10481
sg7271
(dp10482
sg7273
(dp10483
sg7275
(dp10484
sg7277
(dp10485
sg3389
(dp10486
sg7280
(dp10487
sg7396
(dp10488
sg7284
(dp10489
sg7609
(dp10490
sg7288
(dp10491
sg3397
(dp10492
g7323
(dp10493
ssg7294
(dp10494
g9830
(dp10495
ssg7296
(dp10496
sg3421
(dp10497
sg3426
(dp10498
g3458
(dp10499
sg3460
g10149
sg3452
(dp10500
sg3463
g10403
sg3442
g10338
ssg7470
(dp10501
sg7303
(dp10502
sg9830
(dp10503
g7294
g10495
ssg7307
(dp10504
sg3464
(dp10505
sg7310
(dp10506
sg7312
(dp10507
sg3467
(dp10508
sg7315
(dp10509
sg7317
(dp10510
sg3470
(dp10511
g3488
g10439
ssg7320
(dp10512
sg3495
(dp10513
sg7323
(dp10514
g3397
g10493
ssg7325
(dp10515
g7559
g10312
ssg3505
(dp10516
g3509
g10290
ssg9845
(dp10517
sg7330
(dp10518
sg3510
(dp10519
sg7438
(dp10520
sg9850
(dp10521
sg3513
(dp10522
sg7338
(dp10523
sg7340
(dp10524
sg3515
(dp10525
sg3539
(dp10526
sg3548
(dp10527
sg7345
(dp10528
sg3551
(dp10529
g3582
(dp10530
ssg7349
(dp10531
g2541
g10397
ssg7351
(dp10532
sg7353
(dp10533
sg9863
(dp10534
g501
g10123
ssg9865
(dp10535
sg7359
(dp10536
sg6712
(dp10537
g1156
(dp10538
sg1142
g10193
ssg7363
(dp10539
sg7365
(dp10540
g7557
(dp10541
ssg7367
(dp10542
sg7369
(dp10543
sg3587
(dp10544
sg3594
(dp10545
sg749
(dp10546
g704
g10144
ssg6844
(dp10547
sg6848
(dp10548
sg3458
(dp10549
g3460
g10150
sg3426
g10499
ssg3632
(dp10550
g3640
(dp10551
ssg7381
(dp10552
sg7383
(dp10553
sg3641
(dp10554
sg3724
(dp10555
sg7388
(dp10556
sg7390
(dp10557
sg3727
(dp10558
sg3733
(dp10559
sg3743
(dp10560
g9602
g10264
ssg6761
(dp10561
sg3829
(dp10562
sg3833
(dp10563
sg7403
(dp10564
sg7405
(dp10565
sg7407
(dp10566
sg7409
(dp10567
sg7411
(dp10568
sg7413
(dp10569
sg3836
(dp10570
sg3840
(dp10571
sg7417
(dp10572
sg3853
(dp10573
sg3860
(dp10574
sg3452
(dp10575
g3426
g10500
ssg4042
(dp10576
g4034
(dp10577
ssg3582
(dp10578
g3551
g10530
ssg7425
(dp10579
sg7427
(dp10580
sg3870
(dp10581
sg7433
(dp10582
sg7290
(dp10583
sg3876
(dp10584
sg7431
(dp10585
sg3889
(dp10586
sg3892
(dp10587
sg7442
(dp10588
g7510
(dp10589
ssg7444
(dp10590
sg7446
(dp10591
sg3894
(dp10592
sg3909
(dp10593
sg3912
(dp10594
sg7453
(dp10595
sg7455
(dp10596
sg7457
(dp10597
sg7459
(dp10598
sg7461
(dp10599
sg6641
(dp10600
g6270
(dp10601
ssg7464
(dp10602
sg3922
(dp10603
sg9929
(dp10604
sg7301
(dp10605
sg7472
(dp10606
sg7474
(dp10607
sg7476
(dp10608
sg9935
(dp10609
g1336
g10230
ssg3925
(dp10610
sg7481
(dp10611
g6450
(dp10612
ssg3929
(dp10613
sg3932
(dp10614
sg7485
(dp10615
sg7579
(dp10616
sg3950
(dp10617
g7506
(dp10618
sg6980
g10303
ssg3967
(dp10619
sg7607
(dp10620
sg7493
(dp10621
sg3972
(dp10622
sg7497
(dp10623
sg4010
(dp10624
sg7501
(dp10625
sg3640
(dp10626
g3632
g10551
ssg7504
(dp10627
sg4024
(dp10628
sg7506
(dp10629
g3950
g10618
ssg9955
(dp10630
sg7510
(dp10631
g7442
g10589
ssg7512
(dp10632
sg4027
(dp10633
sg7516
(dp10634
sg4034
(dp10635
g4042
g10577
ssg4043
(dp10636
sg1156
(dp10637
g7227
g10455
sg6712
g10538
sg1142
g10194
ssg7522
(dp10638
sg7524
(dp10639
sg7527
(dp10640
sg7529
(dp10641
sg4072
(dp10642
sg7533
(dp10643
sg4076
(dp10644
sg4084
(dp10645
g7557
(dp10646
ssg6860
(dp10647
sg4677
(dp10648
sg7542
(dp10649
g2938
g10443
ssg9975
(dp10650
sg7546
(dp10651
sg4680
(dp10652
sg9979
(dp10653
sg4683
(dp10654
sg4686
(dp10655
sg7553
(dp10656
sg7555
(dp10657
sg7557
(dp10658
g7365
g10541
sg4084
g10646
ssg6993
(dp10659
sg7561
(dp10660
sg9988
(dp10661
sg7565
(dp10662
sg7567
(dp10663
sg7086
(dp10664
sg7051
(dp10665
sg7571
(dp10666
sg7573
(dp10667
sg7575
(dp10668
sg4694
(dp10669
sg4704
(dp10670
sg4720
(dp10671
sg4723
(dp10672
sg7584
(dp10673
sg7586
(dp10674
sg4798
(dp10675
g6267
g10120
ssg6268
(dp10676
sg7591
(dp10677
sg7593
(dp10678
sg64
(dp10679
g37
g10089
ssg6270
(dp10680
g6281
g10255
sg6641
g10601
ssg7598
(dp10681
sg7600
(dp10682
g6752
g10152
ssg6282
(dp10683
sg7603
(dp10684
sg7605
(dp10685
sg6938
(dp10686
sg7286
(dp10687
sg10016
(dp10688
sg7613
(dp10689
g2434
g10375
ssg7615
(dp10690
sg7617
(dp10691
sg7619
(dp10692
sg7621
(dp10693
sg7623
(dp10694
sg7625
(dp10695
g6302
(dp10696
ssg6302
(dp10697
g7625
g10696
ssg6405
(dp10698
sg6408
(dp10699
sg6415
(dp10700
sg7632
(dp10701
sg7634
(dp10702
sg6418
(dp10703
sg6425
(dp10704
sg7639
(dp10705
sg6433
(dp10706
sg7642
(dp10707
sg7644
(dp10708
sg7646
(dp10709
sg7648
(dp10710
sg6436
(dp10711
sg6450
(dp10712
g7481
g10612
ssg7652
(dp10713
sg7654
(dp10714
sg7656
(dp10715
sg7514
(dp10716
sg6582
(dp10717
sg7660
(dp10718
sg7662
(dp10719
sg7664
(dp10720
sg7666
(dp10721
g6791
g10176
ssg6585
(dp10722
sg6590
(dp10723
sg7670
(dp10724
sg6593
(dp10725
sg7674
(dp10726
sg6600
(dp10727
sg7676
(dp10728
sg7678
(dp10729
sg7680
(dp10730
sg7682
(dp10731
g6791
g10177
ssg7684
(dp10732
sg6603
(dp10733
sg6605
(dp10734
ssg9417
(dp10735
sg9419
g7691
sg9420
g10063
sbtp10736
.